

Microchip Technology PIC18 LITE Macro Assembler V1.35 build -356382666 
                                                                                               Sun Dec 06 18:35:47 2015

Microchip Technology Omniscient Code Generator v1.35 (Free mode) build 201507080246
     1                           	processor	18F4480
     2                           	fnconf	rparam,??,?,0
     3                           	opt	pw 120
     4                           	opt	lm
     5                           	psect	cinit,global,reloc=2,class=CODE,delta=1
     6                           	psect	bitbssCOMRAM,global,bit,class=COMRAM,space=1,delta=1
     7                           	psect	bssCOMRAM,global,class=COMRAM,space=1,delta=1
     8                           	psect	cstackCOMRAM,global,class=COMRAM,space=1,delta=1
     9                           	psect	text0,global,reloc=2,class=CODE,delta=1
    10                           	psect	text1,global,reloc=2,class=CODE,delta=1
    11                           	psect	text2,global,reloc=2,class=CODE,delta=1
    12                           	psect	text3,global,reloc=2,class=CODE,delta=1
    13                           	psect	text4,global,reloc=2,class=CODE,delta=1
    14                           	psect	text5,global,reloc=2,class=CODE,delta=1
    15                           	psect	text6,global,reloc=2,class=CODE,delta=1
    16                           	psect	text7,global,reloc=2,class=CODE,delta=1
    17                           	psect	text8,global,reloc=2,class=CODE,delta=1
    18                           	psect	text9,global,reloc=2,class=CODE,delta=1
    19                           	psect	intsave_regs,global,class=BIGRAM,space=1,delta=1
    20                           	psect	rparam,global,class=COMRAM,space=1,delta=1
    21  0000                     _RXB1CON	set	3920
    22  0000                     _RXB1CONbits	set	3920
    23  0000                     _RXB1D0	set	3926
    24  0000                     _RXB1D1	set	3927
    25  0000                     _RXB1D2	set	3928
    26  0000                     _RXB1D3	set	3929
    27  0000                     _RXB1D4	set	3930
    28  0000                     _RXB1D5	set	3931
    29  0000                     _RXB1D6	set	3932
    30  0000                     _RXB1D7	set	3933
    31  0000                     _RXB1DLC	set	3925
    32  0000                     _RXB1DLCbits	set	3925
    33  0000                     _RXB1EIDH	set	3923
    34  0000                     _RXB1EIDL	set	3924
    35  0000                     _RXB1SIDH	set	3921
    36  0000                     _RXB1SIDL	set	3922
    37  0000                     _RXB1SIDLbits	set	3922
    38  0000                     _RXF0EIDH	set	3842
    39  0000                     _RXF0EIDL	set	3843
    40  0000                     _RXF0SIDH	set	3840
    41  0000                     _RXF0SIDL	set	3841
    42  0000                     _RXF0SIDLbits	set	3841
    43  0000                     _RXF1EIDH	set	3846
    44  0000                     _RXF1EIDL	set	3847
    45  0000                     _RXF1SIDH	set	3844
    46  0000                     _RXF1SIDL	set	3845
    47  0000                     _RXF1SIDLbits	set	3845
    48  0000                     _RXF2EIDH	set	3850
    49  0000                     _RXF2EIDL	set	3851
    50  0000                     _RXF2SIDH	set	3848
    51  0000                     _RXF2SIDL	set	3849
    52  0000                     _RXF2SIDLbits	set	3849
    53  0000                     _RXF3EIDH	set	3854
    54  0000                     _RXF3EIDL	set	3855
    55  0000                     _RXF3SIDH	set	3852
    56  0000                     _RXF3SIDL	set	3853
    57  0000                     _RXF3SIDLbits	set	3853
    58  0000                     _RXF4EIDH	set	3858
    59  0000                     _RXF4EIDL	set	3859
    60  0000                     _RXF4SIDH	set	3856
    61  0000                     _RXF4SIDL	set	3857
    62  0000                     _RXF4SIDLbits	set	3857
    63  0000                     _RXF5EIDH	set	3862
    64  0000                     _RXF5EIDL	set	3863
    65  0000                     _RXF5SIDH	set	3860
    66  0000                     _RXF5SIDL	set	3861
    67  0000                     _RXF5SIDLbits	set	3861
    68  0000                     _RXM0EIDH	set	3866
    69  0000                     _RXM0EIDL	set	3867
    70  0000                     _RXM0SIDH	set	3864
    71  0000                     _RXM0SIDL	set	3865
    72  0000                     _RXM0SIDLbits	set	3865
    73  0000                     _RXM1EIDH	set	3870
    74  0000                     _RXM1EIDL	set	3871
    75  0000                     _RXM1SIDH	set	3868
    76  0000                     _RXM1SIDL	set	3869
    77  0000                     _RXM1SIDLbits	set	3869
    78  0000                     _TXB0CONbits	set	3904
    79  0000                     _TXB0D0	set	3910
    80  0000                     _TXB0D1	set	3911
    81  0000                     _TXB0D2	set	3912
    82  0000                     _TXB0D3	set	3913
    83  0000                     _TXB0D4	set	3914
    84  0000                     _TXB0D5	set	3915
    85  0000                     _TXB0D6	set	3916
    86  0000                     _TXB0D7	set	3917
    87  0000                     _TXB0DLC	set	3909
    88  0000                     _TXB0DLCbits	set	3909
    89  0000                     _TXB0EIDH	set	3907
    90  0000                     _TXB0EIDL	set	3908
    91  0000                     _TXB0SIDH	set	3905
    92  0000                     _TXB0SIDL	set	3906
    93  0000                     _TXB0SIDLbits	set	3906
    94  0000                     _TXB1CONbits	set	3888
    95  0000                     _TXB1D0	set	3894
    96  0000                     _TXB1D1	set	3895
    97  0000                     _TXB1D2	set	3896
    98  0000                     _TXB1D3	set	3897
    99  0000                     _TXB1D4	set	3898
   100  0000                     _TXB1D5	set	3899
   101  0000                     _TXB1D6	set	3900
   102  0000                     _TXB1D7	set	3901
   103  0000                     _TXB1DLC	set	3893
   104  0000                     _TXB1DLCbits	set	3893
   105  0000                     _TXB1EIDH	set	3891
   106  0000                     _TXB1EIDL	set	3892
   107  0000                     _TXB1SIDH	set	3889
   108  0000                     _TXB1SIDL	set	3890
   109  0000                     _TXB1SIDLbits	set	3890
   110  0000                     _TXB2CONbits	set	3872
   111  0000                     _TXB2D0	set	3878
   112  0000                     _TXB2D1	set	3879
   113  0000                     _TXB2D2	set	3880
   114  0000                     _TXB2D3	set	3881
   115  0000                     _TXB2D4	set	3882
   116  0000                     _TXB2D5	set	3883
   117  0000                     _TXB2D6	set	3884
   118  0000                     _TXB2D7	set	3885
   119  0000                     _TXB2DLC	set	3877
   120  0000                     _TXB2DLCbits	set	3877
   121  0000                     _TXB2EIDH	set	3875
   122  0000                     _TXB2EIDL	set	3876
   123  0000                     _TXB2SIDH	set	3873
   124  0000                     _TXB2SIDL	set	3874
   125  0000                     _TXB2SIDLbits	set	3874
   126  0000                     _BRGCON1	set	3952
   127  0000                     _BRGCON2	set	3953
   128  0000                     _BRGCON2bits	set	3953
   129  0000                     _BRGCON3	set	3954
   130  0000                     _BRGCON3bits	set	3954
   131  0000                     _CANCON	set	3951
   132  0000                     _CANCONbits	set	3951
   133  0000                     _CANSTAT	set	3950
   134  0000                     _COMSTATbits	set	3956
   135  0000                     _INTCON2bits	set	4081
   136  0000                     _INTCONbits	set	4082
   137  0000                     _IPR3bits	set	4005
   138  0000                     _LATA	set	3977
   139  0000                     _LATB	set	3978
   140  0000                     _LATC	set	3979
   141  0000                     _LATD	set	3980
   142  0000                     _LATE	set	3981
   143  0000                     _PIE3bits	set	4003
   144  0000                     _PIR3bits	set	4004
   145  0000                     _PORTC	set	3970
   146  0000                     _RCONbits	set	4048
   147  0000                     _RXB0CON	set	3936
   148  0000                     _RXB0CONbits	set	3936
   149  0000                     _RXB0D0	set	3942
   150  0000                     _RXB0D1	set	3943
   151  0000                     _RXB0D2	set	3944
   152  0000                     _RXB0D3	set	3945
   153  0000                     _RXB0D4	set	3946
   154  0000                     _RXB0D5	set	3947
   155  0000                     _RXB0D6	set	3948
   156  0000                     _RXB0D7	set	3949
   157  0000                     _RXB0DLC	set	3941
   158  0000                     _RXB0DLCbits	set	3941
   159  0000                     _RXB0EIDH	set	3939
   160  0000                     _RXB0EIDL	set	3940
   161  0000                     _RXB0SIDH	set	3937
   162  0000                     _RXB0SIDL	set	3938
   163  0000                     _RXB0SIDLbits	set	3938
   164  0000                     _RXERRCNT	set	3957
   165  0000                     _TRISA	set	3986
   166  0000                     _TRISB	set	3987
   167  0000                     _TRISC	set	3988
   168  0000                     _TRISD	set	3989
   169  0000                     _TRISE	set	3990
   170  0000                     _TXERRCNT	set	3958
   171                           
   172                           ; #config settings
   173  0000                     
   174                           	psect	cinit
   175  00294A                     __pcinit:
   176                           	opt stack 0
   177  00294A                     start_initialization:
   178                           	opt stack 0
   179  00294A                     __initialization:
   180                           	opt stack 0
   181                           
   182                           ; Clear objects allocated to BITCOMRAM (1 bytes)
   183  00294A  6A46               	clrf	(__pbitbssCOMRAM/(0+8))& (0+255),c
   184                           
   185                           ; Clear objects allocated to COMRAM (43 bytes)
   186  00294C  EE00  F001         	lfsr	0,__pbssCOMRAM
   187  002950  0E2B               	movlw	43
   188  002952                     clear_0:
   189  002952  6AEE               	clrf	postinc0,c
   190  002954  06E8               	decf	wreg,f,c
   191  002956  E1FD               	bnz	clear_0
   192  002958                     end_of_initialization:
   193                           	opt stack 0
   194  002958                     __end_of__initialization:
   195                           	opt stack 0
   196  002958  0E00               	movlw	low (__Lmediumconst shr (0+16))
   197  00295A  6EF8               	movwf	tblptru,c
   198  00295C  0100               	movlb	0
   199  00295E  EF55  F015         	goto	_main	;jump to C main() function
   200                           tblptru	equ	0xFF8
   201                           postinc0	equ	0xFEE
   202                           wreg	equ	0xFE8
   203                           
   204                           	psect	bitbssCOMRAM
   205  000230                     __pbitbssCOMRAM:
   206                           	opt stack 0
   207  000230                     _remote_frame:
   208                           	opt stack 0
   209  000230                     	ds	1
   210                           tblptru	equ	0xFF8
   211                           postinc0	equ	0xFEE
   212                           wreg	equ	0xFE8
   213                           
   214                           	psect	bssCOMRAM
   215  000001                     __pbssCOMRAM:
   216                           	opt stack 0
   217  000001                     _msg:
   218                           	opt stack 0
   219  000001                     	ds	15
   220  000010                     _counter_array:
   221                           	opt stack 0
   222  000010                     	ds	8
   223  000018                     _currentSpeed_array:
   224                           	opt stack 0
   225  000018                     	ds	8
   226  000020                     _id:
   227                           	opt stack 0
   228  000020                     	ds	4
   229  000024                     _data_array:
   230                           	opt stack 0
   231  000024                     	ds	8
   232                           tblptru	equ	0xFF8
   233                           postinc0	equ	0xFEE
   234                           wreg	equ	0xFE8
   235                           
   236                           	psect	cstackCOMRAM
   237  00002C                     __pcstackCOMRAM:
   238                           	opt stack 0
   239  00002C                     ??_delay_ms:
   240  00002C                     CANOperationMode@mode:
   241                           	opt stack 0
   242  00002C                     _CANisTxReady$2592:
   243                           	opt stack 0
   244  00002C                     CANsendMessage@identifier:
   245                           	opt stack 0
   246  00002C                     CANSetMask@mask:
   247                           	opt stack 0
   248  00002C                     CANSetFilter@filter:
   249                           	opt stack 0
   250                           
   251                           ; 4 bytes @ 0x0
   252  00002C                     	ds	4
   253  000030                     CANSetMask@type:
   254                           	opt stack 0
   255  000030                     CANSetFilter@type:
   256                           	opt stack 0
   257  000030                     CANsendMessage@data:
   258                           	opt stack 0
   259                           
   260                           ; 2 bytes @ 0x4
   261  000030                     	ds	1
   262  000031                     ??_CANSetMask:
   263  000031                     ??_CANSetFilter:
   264                           
   265                           ; 0 bytes @ 0x5
   266  000031                     	ds	1
   267  000032                     CANsendMessage@dataLength:
   268                           	opt stack 0
   269                           
   270                           ; 1 bytes @ 0x6
   271  000032                     	ds	1
   272  000033                     CANsendMessage@flags:
   273                           	opt stack 0
   274                           
   275                           ; 1 bytes @ 0x7
   276  000033                     	ds	1
   277  000034                     ??_CANsendMessage:
   278                           
   279                           ; 0 bytes @ 0x8
   280  000034                     	ds	1
   281  000035                     CANSetMask@numBuffer:
   282                           	opt stack 0
   283  000035                     CANSetFilter@numBuffer:
   284                           	opt stack 0
   285                           
   286                           ; 1 bytes @ 0x9
   287  000035                     	ds	1
   288  000036                     CANSetMask@tamp:
   289                           	opt stack 0
   290  000036                     CANSetFilter@tamp:
   291                           	opt stack 0
   292                           
   293                           ; 4 bytes @ 0xA
   294  000036                     	ds	2
   295  000038                     CANsendMessage@tamp:
   296                           	opt stack 0
   297                           
   298                           ; 4 bytes @ 0xC
   299  000038                     	ds	2
   300  00003A                     CANInitialize@phaseSeg1:
   301                           	opt stack 0
   302                           
   303                           ; 1 bytes @ 0xE
   304  00003A                     	ds	1
   305  00003B                     CANInitialize@phaseSeg2:
   306                           	opt stack 0
   307                           
   308                           ; 1 bytes @ 0xF
   309  00003B                     	ds	1
   310  00003C                     CANInitialize@SJW:
   311                           	opt stack 0
   312                           
   313                           ; 1 bytes @ 0x10
   314  00003C                     	ds	1
   315  00003D                     CANInitialize@BRP:
   316                           	opt stack 0
   317                           
   318                           ; 1 bytes @ 0x11
   319  00003D                     	ds	1
   320  00003E                     CANInitialize@flags:
   321                           	opt stack 0
   322                           
   323                           ; 1 bytes @ 0x12
   324  00003E                     	ds	1
   325  00003F                     ??_CANInitialize:
   326                           
   327                           ; 0 bytes @ 0x13
   328  00003F                     	ds	4
   329  000043                     CANInitialize@propSeg:
   330                           	opt stack 0
   331                           
   332                           ; 1 bytes @ 0x17
   333  000043                     	ds	1
   334  000044                     CANInitialize@FilterConfig1:
   335                           	opt stack 0
   336                           
   337                           ; 1 bytes @ 0x18
   338  000044                     	ds	1
   339  000045                     CANInitialize@FilterConfig2:
   340                           	opt stack 0
   341                           
   342                           ; 1 bytes @ 0x19
   343  000045                     	ds	1
   344  000046                     tblptru	equ	0xFF8
   345                           postinc0	equ	0xFEE
   346                           wreg	equ	0xFE8
   347                           
   348                           ; 0 bytes @ 0x1A
   349 ;;
   350 ;;Main: autosize = 0, tempsize = 0, incstack = 0, save=0
   351 ;;
   352 ;; *************** function _main *****************
   353 ;; Defined at:
   354 ;;		line 48 in file "tester.c"
   355 ;; Parameters:    Size  Location     Type
   356 ;;		None
   357 ;; Auto vars:     Size  Location     Type
   358 ;;		None
   359 ;; Return value:  Size  Location     Type
   360 ;;                  2  546[None  ] int 
   361 ;; Registers used:
   362 ;;		wreg, fsr2l, fsr2h, status,2, status,0, cstack
   363 ;; Tracked objects:
   364 ;;		On entry : 0/0
   365 ;;		On exit  : 0/0
   366 ;;		Unchanged: 0/0
   367 ;; Data sizes:     COMRAM   BANK0   BANK1   BANK2
   368 ;;      Params:         0       0       0       0
   369 ;;      Locals:         0       0       0       0
   370 ;;      Temps:          0       0       0       0
   371 ;;      Totals:         0       0       0       0
   372 ;;Total ram usage:        0 bytes
   373 ;; Hardware stack levels required when called:    3
   374 ;; This function calls:
   375 ;;		_configurazione_iniziale
   376 ;;		_delay_ms
   377 ;;		_send_data
   378 ;; This function is called by:
   379 ;;		Startup code after reset
   380 ;; This function uses a non-reentrant model
   381 ;;
   382                           
   383                           	psect	text0
   384  002AAA                     __ptext0:
   385                           	opt stack 0
   386  002AAA                     _main:
   387                           	opt stack 28
   388                           
   389                           ;tester.c: 49: configurazione_iniziale();
   390                           
   391                           ;incstack = 0
   392  002AAA  ECE0  F014         	call	_configurazione_iniziale	;wreg free
   393                           
   394                           ;tester.c: 50: PORTC = 0xFF;
   395  002AAE  6882               	setf	3970,c	;volatile
   396                           
   397                           ;tester.c: 51: delay_ms();
   398  002AB0  EC0E  F015         	call	_delay_ms	;wreg free
   399                           
   400                           ;tester.c: 52: PORTC = 0x00;
   401  002AB4  0E00               	movlw	0
   402  002AB6  6E82               	movwf	3970,c	;volatile
   403                           
   404                           ;tester.c: 53: delay_ms();
   405  002AB8  EC0E  F015         	call	_delay_ms	;wreg free
   406  002ABC                     l2940:
   407                           
   408                           ;tester.c: 56: data_array[0] = 0x00;
   409  002ABC  0E00               	movlw	0
   410  002ABE  6E24               	movwf	_data_array,c
   411                           
   412                           ;tester.c: 57: PORTC = 0xFF;
   413  002AC0  6882               	setf	3970,c	;volatile
   414                           
   415                           ;tester.c: 58: delay_ms();
   416  002AC2  EC0E  F015         	call	_delay_ms	;wreg free
   417                           
   418                           ;tester.c: 59: PORTC = 0x00;
   419  002AC6  0E00               	movlw	0
   420  002AC8  6E82               	movwf	3970,c	;volatile
   421                           
   422                           ;tester.c: 60: delay_ms();
   423  002ACA  EC0E  F015         	call	_delay_ms	;wreg free
   424                           
   425                           ;tester.c: 61: PORTC = 0xFF;
   426  002ACE  6882               	setf	3970,c	;volatile
   427                           
   428                           ;tester.c: 62: delay_ms();
   429  002AD0  EC0E  F015         	call	_delay_ms	;wreg free
   430                           
   431                           ;tester.c: 63: PORTC = 0x00;
   432  002AD4  0E00               	movlw	0
   433  002AD6  6E82               	movwf	3970,c	;volatile
   434                           
   435                           ;tester.c: 64: send_data();
   436  002AD8  ECC0  F014         	call	_send_data	;wreg free
   437                           
   438                           ;tester.c: 65: delay_ms();
   439  002ADC  EC0E  F015         	call	_delay_ms	;wreg free
   440                           
   441                           ;tester.c: 66: delay_ms();
   442  002AE0  EC0E  F015         	call	_delay_ms	;wreg free
   443                           
   444                           ;tester.c: 67: delay_ms();
   445  002AE4  EC0E  F015         	call	_delay_ms	;wreg free
   446                           
   447                           ;tester.c: 68: delay_ms();
   448  002AE8  EC0E  F015         	call	_delay_ms	;wreg free
   449                           
   450                           ;tester.c: 69: delay_ms();
   451  002AEC  EC0E  F015         	call	_delay_ms	;wreg free
   452                           
   453                           ;tester.c: 70: delay_ms();
   454  002AF0  EC0E  F015         	call	_delay_ms	;wreg free
   455                           
   456                           ;tester.c: 71: delay_ms();
   457  002AF4  EC0E  F015         	call	_delay_ms	;wreg free
   458                           
   459                           ;tester.c: 72: delay_ms();
   460  002AF8  EC0E  F015         	call	_delay_ms	;wreg free
   461                           
   462                           ;tester.c: 73: delay_ms();
   463  002AFC  EC0E  F015         	call	_delay_ms	;wreg free
   464                           
   465                           ;tester.c: 74: delay_ms();
   466  002B00  EC0E  F015         	call	_delay_ms	;wreg free
   467                           
   468                           ;tester.c: 75: delay_ms();
   469  002B04  EC0E  F015         	call	_delay_ms	;wreg free
   470                           
   471                           ;tester.c: 76: delay_ms();
   472  002B08  EC0E  F015         	call	_delay_ms	;wreg free
   473                           
   474                           ;tester.c: 77: delay_ms();
   475  002B0C  EC0E  F015         	call	_delay_ms	;wreg free
   476                           
   477                           ;tester.c: 78: delay_ms();
   478  002B10  EC0E  F015         	call	_delay_ms	;wreg free
   479                           
   480                           ;tester.c: 79: delay_ms();
   481  002B14  EC0E  F015         	call	_delay_ms	;wreg free
   482                           
   483                           ;tester.c: 80: delay_ms();
   484  002B18  EC0E  F015         	call	_delay_ms	;wreg free
   485                           
   486                           ;tester.c: 81: delay_ms();
   487  002B1C  EC0E  F015         	call	_delay_ms	;wreg free
   488                           
   489                           ;tester.c: 82: delay_ms();
   490  002B20  EC0E  F015         	call	_delay_ms	;wreg free
   491                           
   492                           ;tester.c: 83: data_array[0] = 0x10;
   493  002B24  0E10               	movlw	16
   494  002B26  6E24               	movwf	_data_array,c
   495                           
   496                           ;tester.c: 84: PORTC = 0xFF;
   497  002B28  6882               	setf	3970,c	;volatile
   498                           
   499                           ;tester.c: 85: delay_ms();
   500  002B2A  EC0E  F015         	call	_delay_ms	;wreg free
   501                           
   502                           ;tester.c: 86: PORTC = 0x00;
   503  002B2E  0E00               	movlw	0
   504  002B30  6E82               	movwf	3970,c	;volatile
   505                           
   506                           ;tester.c: 87: delay_ms();
   507  002B32  EC0E  F015         	call	_delay_ms	;wreg free
   508                           
   509                           ;tester.c: 88: PORTC = 0xFF;
   510  002B36  6882               	setf	3970,c	;volatile
   511                           
   512                           ;tester.c: 89: delay_ms();
   513  002B38  EC0E  F015         	call	_delay_ms	;wreg free
   514                           
   515                           ;tester.c: 90: PORTC = 0x00;
   516  002B3C  0E00               	movlw	0
   517  002B3E  6E82               	movwf	3970,c	;volatile
   518                           
   519                           ;tester.c: 91: send_data();
   520  002B40  ECC0  F014         	call	_send_data	;wreg free
   521                           
   522                           ;tester.c: 92: delay_ms();
   523  002B44  EC0E  F015         	call	_delay_ms	;wreg free
   524                           
   525                           ;tester.c: 93: delay_ms();
   526  002B48  EC0E  F015         	call	_delay_ms	;wreg free
   527                           
   528                           ;tester.c: 94: delay_ms();
   529  002B4C  EC0E  F015         	call	_delay_ms	;wreg free
   530                           
   531                           ;tester.c: 95: delay_ms();
   532  002B50  EC0E  F015         	call	_delay_ms	;wreg free
   533                           
   534                           ;tester.c: 96: delay_ms();
   535  002B54  EC0E  F015         	call	_delay_ms	;wreg free
   536                           
   537                           ;tester.c: 97: delay_ms();
   538  002B58  EC0E  F015         	call	_delay_ms	;wreg free
   539                           
   540                           ;tester.c: 98: delay_ms();
   541  002B5C  EC0E  F015         	call	_delay_ms	;wreg free
   542                           
   543                           ;tester.c: 99: delay_ms();
   544  002B60  EC0E  F015         	call	_delay_ms	;wreg free
   545                           
   546                           ;tester.c: 100: delay_ms();
   547  002B64  EC0E  F015         	call	_delay_ms	;wreg free
   548                           
   549                           ;tester.c: 101: delay_ms();
   550  002B68  EC0E  F015         	call	_delay_ms	;wreg free
   551                           
   552                           ;tester.c: 102: delay_ms();
   553  002B6C  EC0E  F015         	call	_delay_ms	;wreg free
   554                           
   555                           ;tester.c: 103: delay_ms();
   556  002B70  EC0E  F015         	call	_delay_ms	;wreg free
   557                           
   558                           ;tester.c: 104: delay_ms();
   559  002B74  EC0E  F015         	call	_delay_ms	;wreg free
   560                           
   561                           ;tester.c: 105: delay_ms();
   562  002B78  EC0E  F015         	call	_delay_ms	;wreg free
   563                           
   564                           ;tester.c: 106: delay_ms();
   565  002B7C  EC0E  F015         	call	_delay_ms	;wreg free
   566                           
   567                           ;tester.c: 107: delay_ms();
   568  002B80  EC0E  F015         	call	_delay_ms	;wreg free
   569                           
   570                           ;tester.c: 108: delay_ms();
   571  002B84  EC0E  F015         	call	_delay_ms	;wreg free
   572                           
   573                           ;tester.c: 109: delay_ms();
   574  002B88  EC0E  F015         	call	_delay_ms	;wreg free
   575  002B8C  D797               	goto	l2940
   576  002B8E                     __end_of_main:
   577                           	opt stack 0
   578                           tblptru	equ	0xFF8
   579                           postinc0	equ	0xFEE
   580                           wreg	equ	0xFE8
   581                           
   582 ;; *************** function _send_data *****************
   583 ;; Defined at:
   584 ;;		line 113 in file "tester.c"
   585 ;; Parameters:    Size  Location     Type
   586 ;;		None
   587 ;; Auto vars:     Size  Location     Type
   588 ;;		None
   589 ;; Return value:  Size  Location     Type
   590 ;;		None               void
   591 ;; Registers used:
   592 ;;		wreg, fsr2l, fsr2h, status,2, status,0, cstack
   593 ;; Tracked objects:
   594 ;;		On entry : 0/0
   595 ;;		On exit  : 0/0
   596 ;;		Unchanged: 0/0
   597 ;; Data sizes:     COMRAM   BANK0   BANK1   BANK2
   598 ;;      Params:         0       0       0       0
   599 ;;      Locals:         0       0       0       0
   600 ;;      Temps:          0       0       0       0
   601 ;;      Totals:         0       0       0       0
   602 ;;Total ram usage:        0 bytes
   603 ;; Hardware stack levels used:    1
   604 ;; Hardware stack levels required when called:    1
   605 ;; This function calls:
   606 ;;		_CANisTxReady
   607 ;;		_CANsendMessage
   608 ;;		_delay_ms
   609 ;; This function is called by:
   610 ;;		_main
   611 ;; This function uses a non-reentrant model
   612 ;;
   613                           
   614                           	psect	text1
   615  002980                     __ptext1:
   616                           	opt stack 0
   617  002980                     _send_data:
   618                           	opt stack 29
   619                           
   620                           ;tester.c: 114: if (CANisTxReady()) {
   621                           
   622                           ;incstack = 0
   623  002980  ECB1  F014         	call	_CANisTxReady	;wreg free
   624  002984  0900               	iorlw	0
   625  002986  B4D8               	btfsc	status,2,c
   626  002988  0012               	return	
   627                           
   628                           ;tester.c: 115: CANsendMessage(0b00000000000000000000000000110, data_array, 8, CAN_NORMA
      +                          L_TX_FRAME & CAN_CONFIG_STD_MSG & CAN_TX_PRIORITY_3);
   629  00298A  0E06               	movlw	6
   630  00298C  6E2C               	movwf	CANsendMessage@identifier,c
   631  00298E  0E00               	movlw	0
   632  002990  6E2D               	movwf	CANsendMessage@identifier+1,c
   633  002992  0E00               	movlw	0
   634  002994  6E2E               	movwf	CANsendMessage@identifier+2,c
   635  002996  0E00               	movlw	0
   636  002998  6E2F               	movwf	CANsendMessage@identifier+3,c
   637  00299A  0E24               	movlw	low _data_array
   638  00299C  6E30               	movwf	CANsendMessage@data,c
   639  00299E  0E00               	movlw	high _data_array
   640  0029A0  6E31               	movwf	CANsendMessage@data+1,c
   641  0029A2  0E08               	movlw	8
   642  0029A4  6E32               	movwf	CANsendMessage@dataLength,c
   643  0029A6  0EBF               	movlw	191
   644  0029A8  6E33               	movwf	CANsendMessage@flags,c
   645  0029AA  EC0A  F018         	call	_CANsendMessage	;wreg free
   646                           
   647                           ;tester.c: 116: remote_frame = 0;
   648  0029AE  9046               	bcf	_remote_frame/(0+8),_remote_frame& (0+7),c
   649                           
   650                           ;tester.c: 117: PORTC = 0xFF;
   651  0029B0  6882               	setf	3970,c	;volatile
   652                           
   653                           ;tester.c: 118: delay_ms();
   654  0029B2  EC0E  F015         	call	_delay_ms	;wreg free
   655                           
   656                           ;tester.c: 119: PORTC = 0x00;
   657  0029B6  0E00               	movlw	0
   658  0029B8  6E82               	movwf	3970,c	;volatile
   659                           
   660                           ;tester.c: 120: delay_ms();
   661  0029BA  EC0E  F015         	call	_delay_ms	;wreg free
   662  0029BE  0012               	return	
   663  0029C0                     __end_of_send_data:
   664                           	opt stack 0
   665                           tblptru	equ	0xFF8
   666                           postinc0	equ	0xFEE
   667                           wreg	equ	0xFE8
   668                           status	equ	0xFD8
   669                           
   670 ;; *************** function _delay_ms *****************
   671 ;; Defined at:
   672 ;;		line 124 in file "tester.c"
   673 ;; Parameters:    Size  Location     Type
   674 ;;		None
   675 ;; Auto vars:     Size  Location     Type
   676 ;;		None
   677 ;; Return value:  Size  Location     Type
   678 ;;		None               void
   679 ;; Registers used:
   680 ;;		wreg
   681 ;; Tracked objects:
   682 ;;		On entry : 0/0
   683 ;;		On exit  : 0/0
   684 ;;		Unchanged: 0/0
   685 ;; Data sizes:     COMRAM   BANK0   BANK1   BANK2
   686 ;;      Params:         0       0       0       0
   687 ;;      Locals:         0       0       0       0
   688 ;;      Temps:          1       0       0       0
   689 ;;      Totals:         1       0       0       0
   690 ;;Total ram usage:        1 bytes
   691 ;; Hardware stack levels used:    1
   692 ;; This function calls:
   693 ;;		Nothing
   694 ;; This function is called by:
   695 ;;		_main
   696 ;;		_send_data
   697 ;; This function uses a non-reentrant model
   698 ;;
   699                           
   700                           	psect	text2
   701  002A1C                     __ptext2:
   702                           	opt stack 0
   703  002A1C                     _delay_ms:
   704                           	opt stack 29
   705                           
   706                           ;tester.c: 125: _delay((unsigned long)((10)*(16000000/4000.0)));
   707                           
   708                           ;incstack = 0
   709  002A1C  0E34               	movlw	52
   710  002A1E  6E2C               	movwf	??_delay_ms& (0+255),c
   711  002A20  0EF2               	movlw	242
   712  002A22                     u3047:
   713  002A22  2EE8               	decfsz	wreg,f,c
   714  002A24  D7FE               	goto	u3047
   715  002A26  2E2C               	decfsz	??_delay_ms& (0+255),f,c
   716  002A28  D7FC               	goto	u3047
   717                           
   718                           ;tester.c: 126: _delay((unsigned long)((10)*(16000000/4000.0)));
   719  002A2A  0E34               	movlw	52
   720  002A2C  6E2C               	movwf	??_delay_ms& (0+255),c
   721  002A2E  0EF2               	movlw	242
   722  002A30                     u3057:
   723  002A30  2EE8               	decfsz	wreg,f,c
   724  002A32  D7FE               	goto	u3057
   725  002A34  2E2C               	decfsz	??_delay_ms& (0+255),f,c
   726  002A36  D7FC               	goto	u3057
   727                           
   728                           ;tester.c: 127: _delay((unsigned long)((10)*(16000000/4000.0)));
   729  002A38  0E34               	movlw	52
   730  002A3A  6E2C               	movwf	??_delay_ms& (0+255),c
   731  002A3C  0EF2               	movlw	242
   732  002A3E                     u3067:
   733  002A3E  2EE8               	decfsz	wreg,f,c
   734  002A40  D7FE               	goto	u3067
   735  002A42  2E2C               	decfsz	??_delay_ms& (0+255),f,c
   736  002A44  D7FC               	goto	u3067
   737                           
   738                           ;tester.c: 128: _delay((unsigned long)((10)*(16000000/4000.0)));
   739  002A46  0E34               	movlw	52
   740  002A48  6E2C               	movwf	??_delay_ms& (0+255),c
   741  002A4A  0EF2               	movlw	242
   742  002A4C                     u3077:
   743  002A4C  2EE8               	decfsz	wreg,f,c
   744  002A4E  D7FE               	goto	u3077
   745  002A50  2E2C               	decfsz	??_delay_ms& (0+255),f,c
   746  002A52  D7FC               	goto	u3077
   747                           
   748                           ;tester.c: 129: _delay((unsigned long)((10)*(16000000/4000.0)));
   749  002A54  0E34               	movlw	52
   750  002A56  6E2C               	movwf	??_delay_ms& (0+255),c
   751  002A58  0EF2               	movlw	242
   752  002A5A                     u3087:
   753  002A5A  2EE8               	decfsz	wreg,f,c
   754  002A5C  D7FE               	goto	u3087
   755  002A5E  2E2C               	decfsz	??_delay_ms& (0+255),f,c
   756  002A60  D7FC               	goto	u3087
   757                           
   758                           ;tester.c: 130: _delay((unsigned long)((10)*(16000000/4000.0)));
   759  002A62  0E34               	movlw	52
   760  002A64  6E2C               	movwf	??_delay_ms& (0+255),c
   761  002A66  0EF2               	movlw	242
   762  002A68                     u3097:
   763  002A68  2EE8               	decfsz	wreg,f,c
   764  002A6A  D7FE               	goto	u3097
   765  002A6C  2E2C               	decfsz	??_delay_ms& (0+255),f,c
   766  002A6E  D7FC               	goto	u3097
   767                           
   768                           ;tester.c: 131: _delay((unsigned long)((10)*(16000000/4000.0)));
   769  002A70  0E34               	movlw	52
   770  002A72  6E2C               	movwf	??_delay_ms& (0+255),c
   771  002A74  0EF2               	movlw	242
   772  002A76                     u3107:
   773  002A76  2EE8               	decfsz	wreg,f,c
   774  002A78  D7FE               	goto	u3107
   775  002A7A  2E2C               	decfsz	??_delay_ms& (0+255),f,c
   776  002A7C  D7FC               	goto	u3107
   777                           
   778                           ;tester.c: 132: _delay((unsigned long)((10)*(16000000/4000.0)));
   779  002A7E  0E34               	movlw	52
   780  002A80  6E2C               	movwf	??_delay_ms& (0+255),c
   781  002A82  0EF2               	movlw	242
   782  002A84                     u3117:
   783  002A84  2EE8               	decfsz	wreg,f,c
   784  002A86  D7FE               	goto	u3117
   785  002A88  2E2C               	decfsz	??_delay_ms& (0+255),f,c
   786  002A8A  D7FC               	goto	u3117
   787                           
   788                           ;tester.c: 133: _delay((unsigned long)((10)*(16000000/4000.0)));
   789  002A8C  0E34               	movlw	52
   790  002A8E  6E2C               	movwf	??_delay_ms& (0+255),c
   791  002A90  0EF2               	movlw	242
   792  002A92                     u3127:
   793  002A92  2EE8               	decfsz	wreg,f,c
   794  002A94  D7FE               	goto	u3127
   795  002A96  2E2C               	decfsz	??_delay_ms& (0+255),f,c
   796  002A98  D7FC               	goto	u3127
   797                           
   798                           ;tester.c: 134: _delay((unsigned long)((10)*(16000000/4000.0)));
   799  002A9A  0E34               	movlw	52
   800  002A9C  6E2C               	movwf	??_delay_ms& (0+255),c
   801  002A9E  0EF2               	movlw	242
   802  002AA0                     u3137:
   803  002AA0  2EE8               	decfsz	wreg,f,c
   804  002AA2  D7FE               	goto	u3137
   805  002AA4  2E2C               	decfsz	??_delay_ms& (0+255),f,c
   806  002AA6  D7FC               	goto	u3137
   807  002AA8  0012               	return		;funcret
   808  002AAA                     __end_of_delay_ms:
   809                           	opt stack 0
   810                           tblptru	equ	0xFF8
   811                           postinc0	equ	0xFEE
   812                           wreg	equ	0xFE8
   813                           status	equ	0xFD8
   814                           
   815 ;; *************** function _CANsendMessage *****************
   816 ;; Defined at:
   817 ;;		line 294 in file "../../../LaurTec_PIC_libraries_v_3.3.0/inc\CANlib.h"
   818 ;; Parameters:    Size  Location     Type
   819 ;;  identifier      4    0[COMRAM] unsigned long 
   820 ;;  data            2    4[COMRAM] PTR unsigned char 
   821 ;;		 -> data_array(8), 
   822 ;;  dataLength      1    6[COMRAM] unsigned char 
   823 ;;  flags           1    7[COMRAM] enum E16866
   824 ;; Auto vars:     Size  Location     Type
   825 ;;  tamp            4   12[COMRAM] unsigned long 
   826 ;; Return value:  Size  Location     Type
   827 ;;		None               void
   828 ;; Registers used:
   829 ;;		wreg, fsr2l, fsr2h, status,2, status,0
   830 ;; Tracked objects:
   831 ;;		On entry : 0/0
   832 ;;		On exit  : 0/0
   833 ;;		Unchanged: 0/0
   834 ;; Data sizes:     COMRAM   BANK0   BANK1   BANK2
   835 ;;      Params:         8       0       0       0
   836 ;;      Locals:         4       0       0       0
   837 ;;      Temps:          4       0       0       0
   838 ;;      Totals:        16       0       0       0
   839 ;;Total ram usage:       16 bytes
   840 ;; Hardware stack levels used:    1
   841 ;; This function calls:
   842 ;;		Nothing
   843 ;; This function is called by:
   844 ;;		_send_data
   845 ;; This function uses a non-reentrant model
   846 ;;
   847                           
   848                           	psect	text3
   849  003014                     __ptext3:
   850                           	opt stack 0
   851  003014                     _CANsendMessage:
   852                           	opt stack 29
   853                           
   854                           ;inc\CANlib.h: 296: unsigned long tamp;
   855                           ;inc\CANlib.h: 298: if (TXB0CONbits.TXREQ == 0)
   856                           
   857                           ;incstack = 0
   858  003014  010F               	movlb	15	; () banked
   859  003016  B740               	btfsc	64,3,b	;volatile
   860  003018  D115               	goto	l333
   861                           
   862                           ; BSR set to: 15
   863                           ;inc\CANlib.h: 299: { TXB0DLC = dataLength;
   864  00301A  C032  FF45         	movff	CANsendMessage@dataLength,3909	;volatile
   865                           
   866                           ;inc\CANlib.h: 300: if (0b01000000 & flags)
   867  00301E  AC33               	btfss	CANsendMessage@flags,6,c
   868  003020  D003               	goto	l334
   869                           
   870                           ; BSR set to: 15
   871                           ;inc\CANlib.h: 301: TXB0DLCbits.TXRTR = 0x01;
   872  003022  010F               	movlb	15	; () banked
   873  003024  8D45               	bsf	69,6,b	;volatile
   874  003026  D002               	goto	l335
   875  003028                     l334:
   876                           
   877                           ; BSR set to: 15
   878                           ;inc\CANlib.h: 302: else
   879                           ;inc\CANlib.h: 303: TXB0DLCbits.TXRTR = 0x00;
   880  003028  010F               	movlb	15	; () banked
   881  00302A  9D45               	bcf	69,6,b	;volatile
   882  00302C                     l335:
   883                           
   884                           ; BSR set to: 15
   885                           ;inc\CANlib.h: 305: if (CAN_TX_FRAME_MASK & flags)
   886  00302C  A633               	btfss	CANsendMessage@flags,3,c
   887  00302E  D066               	goto	l336
   888                           
   889                           ; BSR set to: 15
   890                           ;inc\CANlib.h: 306: {
   891                           ;inc\CANlib.h: 308: tamp = identifier & 0x000000FF;
   892  003030  502C               	movf	CANsendMessage@identifier,w,c
   893  003032  6E38               	movwf	CANsendMessage@tamp,c
   894  003034  6A39               	clrf	CANsendMessage@tamp+1,c
   895  003036  6A3A               	clrf	CANsendMessage@tamp+2,c
   896  003038  6A3B               	clrf	CANsendMessage@tamp+3,c
   897                           
   898                           ; BSR set to: 15
   899                           ;inc\CANlib.h: 309: TXB0EIDL = (unsigned char) tamp;
   900  00303A  C038  FF44         	movff	CANsendMessage@tamp,3908	;volatile
   901                           
   902                           ; BSR set to: 15
   903                           ;inc\CANlib.h: 311: tamp = identifier & 0x0000FF00;
   904  00303E  0E00               	movlw	0
   905  003040  142C               	andwf	CANsendMessage@identifier,w,c
   906  003042  6E38               	movwf	CANsendMessage@tamp,c
   907  003044  0EFF               	movlw	255
   908  003046  142D               	andwf	CANsendMessage@identifier+1,w,c
   909  003048  6E39               	movwf	CANsendMessage@tamp+1,c
   910  00304A  0E00               	movlw	0
   911  00304C  142E               	andwf	CANsendMessage@identifier+2,w,c
   912  00304E  6E3A               	movwf	CANsendMessage@tamp+2,c
   913  003050  0E00               	movlw	0
   914  003052  142F               	andwf	CANsendMessage@identifier+3,w,c
   915  003054  6E3B               	movwf	CANsendMessage@tamp+3,c
   916                           
   917                           ; BSR set to: 15
   918                           ;inc\CANlib.h: 312: tamp = tamp >> 8;
   919  003056  C038  F034         	movff	CANsendMessage@tamp,??_CANsendMessage
   920  00305A  C039  F035         	movff	CANsendMessage@tamp+1,??_CANsendMessage+1
   921  00305E  C03A  F036         	movff	CANsendMessage@tamp+2,??_CANsendMessage+2
   922  003062  C03B  F037         	movff	CANsendMessage@tamp+3,??_CANsendMessage+3
   923  003066  C035  F034         	movff	??_CANsendMessage+1,??_CANsendMessage
   924  00306A  C036  F035         	movff	??_CANsendMessage+2,??_CANsendMessage+1
   925  00306E  C037  F036         	movff	??_CANsendMessage+3,??_CANsendMessage+2
   926  003072  6A37               	clrf	??_CANsendMessage+3,c
   927  003074  C034  F038         	movff	??_CANsendMessage,CANsendMessage@tamp
   928  003078  C035  F039         	movff	??_CANsendMessage+1,CANsendMessage@tamp+1
   929  00307C  C036  F03A         	movff	??_CANsendMessage+2,CANsendMessage@tamp+2
   930  003080  C037  F03B         	movff	??_CANsendMessage+3,CANsendMessage@tamp+3
   931                           
   932                           ; BSR set to: 15
   933                           ;inc\CANlib.h: 313: TXB0EIDH = (unsigned char) tamp;
   934  003084  C038  FF43         	movff	CANsendMessage@tamp,3907	;volatile
   935                           
   936                           ; BSR set to: 15
   937                           ;inc\CANlib.h: 315: TXB0SIDL = 0x00;
   938  003088  0E00               	movlw	0
   939  00308A  010F               	movlb	15	; () banked
   940  00308C  6F42               	movwf	66,b	;volatile
   941                           
   942                           ; BSR set to: 15
   943                           ;inc\CANlib.h: 316: TXB0SIDLbits.EXIDE = 0x01;
   944  00308E  010F               	movlb	15	; () banked
   945  003090  8742               	bsf	66,3,b	;volatile
   946                           
   947                           ; BSR set to: 15
   948                           ;inc\CANlib.h: 318: if (identifier & 0x00010000)
   949  003092  A02E               	btfss	CANsendMessage@identifier+2,0,c
   950  003094  D002               	goto	l337
   951                           
   952                           ; BSR set to: 15
   953                           ;inc\CANlib.h: 319: TXB0SIDLbits.EID16 = 0x01;
   954  003096  010F               	movlb	15	; () banked
   955  003098  8142               	bsf	66,0,b	;volatile
   956  00309A                     l337:
   957                           
   958                           ; BSR set to: 15
   959                           ;inc\CANlib.h: 320: if (identifier & 0x00020000)
   960  00309A  A22E               	btfss	CANsendMessage@identifier+2,1,c
   961  00309C  D002               	goto	l338
   962                           
   963                           ; BSR set to: 15
   964                           ;inc\CANlib.h: 321: TXB0SIDLbits.EID17 = 0x01;
   965  00309E  010F               	movlb	15	; () banked
   966  0030A0  8342               	bsf	66,1,b	;volatile
   967  0030A2                     l338:
   968                           
   969                           ; BSR set to: 15
   970                           ;inc\CANlib.h: 322: if (identifier & 0x00040000)
   971  0030A2  A42E               	btfss	CANsendMessage@identifier+2,2,c
   972  0030A4  D002               	goto	l339
   973                           
   974                           ; BSR set to: 15
   975                           ;inc\CANlib.h: 323: TXB0SIDLbits.SID0 = 0x01;
   976  0030A6  010F               	movlb	15	; () banked
   977  0030A8  8B42               	bsf	66,5,b	;volatile
   978  0030AA                     l339:
   979                           
   980                           ; BSR set to: 15
   981                           ;inc\CANlib.h: 324: if (identifier & 0x00080000)
   982  0030AA  A62E               	btfss	CANsendMessage@identifier+2,3,c
   983  0030AC  D002               	goto	l340
   984                           
   985                           ; BSR set to: 15
   986                           ;inc\CANlib.h: 325: TXB0SIDLbits.SID1 = 0x01;
   987  0030AE  010F               	movlb	15	; () banked
   988  0030B0  8D42               	bsf	66,6,b	;volatile
   989  0030B2                     l340:
   990                           
   991                           ; BSR set to: 15
   992                           ;inc\CANlib.h: 326: if (identifier & 0x00100000)
   993  0030B2  A82E               	btfss	CANsendMessage@identifier+2,4,c
   994  0030B4  D002               	goto	l2660
   995                           
   996                           ; BSR set to: 15
   997                           ;inc\CANlib.h: 327: TXB0SIDLbits.SID2 = 0x01;
   998  0030B6  010F               	movlb	15	; () banked
   999  0030B8  8F42               	bsf	66,7,b	;volatile
  1000  0030BA                     l2660:
  1001                           
  1002                           ; BSR set to: 15
  1003                           ;inc\CANlib.h: 329: tamp = (identifier >> 21);
  1004  0030BA  C02C  F034         	movff	CANsendMessage@identifier,??_CANsendMessage
  1005  0030BE  C02D  F035         	movff	CANsendMessage@identifier+1,??_CANsendMessage+1
  1006  0030C2  C02E  F036         	movff	CANsendMessage@identifier+2,??_CANsendMessage+2
  1007  0030C6  C02F  F037         	movff	CANsendMessage@identifier+3,??_CANsendMessage+3
  1008  0030CA  0E16               	movlw	22
  1009  0030CC  D005               	goto	u2690
  1010  0030CE                     u2695:
  1011  0030CE  90D8               	bcf	status,0,c
  1012  0030D0  3237               	rrcf	??_CANsendMessage+3,f,c
  1013  0030D2  3236               	rrcf	??_CANsendMessage+2,f,c
  1014  0030D4  3235               	rrcf	??_CANsendMessage+1,f,c
  1015  0030D6  3234               	rrcf	??_CANsendMessage,f,c
  1016  0030D8                     u2690:
  1017  0030D8  2EE8               	decfsz	wreg,f,c
  1018  0030DA  D7F9               	goto	u2695
  1019  0030DC  C034  F038         	movff	??_CANsendMessage,CANsendMessage@tamp
  1020  0030E0  C035  F039         	movff	??_CANsendMessage+1,CANsendMessage@tamp+1
  1021  0030E4  C036  F03A         	movff	??_CANsendMessage+2,CANsendMessage@tamp+2
  1022  0030E8  C037  F03B         	movff	??_CANsendMessage+3,CANsendMessage@tamp+3
  1023                           
  1024                           ; BSR set to: 15
  1025                           ;inc\CANlib.h: 330: tamp = tamp & 0x000000FF;
  1026  0030EC  5038               	movf	CANsendMessage@tamp,w,c
  1027  0030EE  6E38               	movwf	CANsendMessage@tamp,c
  1028  0030F0  6A39               	clrf	CANsendMessage@tamp+1,c
  1029  0030F2  6A3A               	clrf	CANsendMessage@tamp+2,c
  1030  0030F4  6A3B               	clrf	CANsendMessage@tamp+3,c
  1031                           
  1032                           ; BSR set to: 15
  1033                           ;inc\CANlib.h: 331: TXB0SIDH = (unsigned char) tamp;
  1034  0030F6  C038  FF41         	movff	CANsendMessage@tamp,3905	;volatile
  1035                           
  1036                           ;inc\CANlib.h: 332: }
  1037  0030FA  D04D               	goto	l2680
  1038  0030FC                     l336:
  1039                           
  1040                           ; BSR set to: 15
  1041                           ;inc\CANlib.h: 334: else
  1042                           ;inc\CANlib.h: 336: {
  1043                           ;inc\CANlib.h: 337: TXB0SIDLbits.EXIDE = 0x00;
  1044  0030FC  010F               	movlb	15	; () banked
  1045  0030FE  9742               	bcf	66,3,b	;volatile
  1046                           
  1047                           ; BSR set to: 15
  1048                           ;inc\CANlib.h: 339: tamp = (identifier >> 3);
  1049  003100  C02C  F034         	movff	CANsendMessage@identifier,??_CANsendMessage
  1050  003104  C02D  F035         	movff	CANsendMessage@identifier+1,??_CANsendMessage+1
  1051  003108  C02E  F036         	movff	CANsendMessage@identifier+2,??_CANsendMessage+2
  1052  00310C  C02F  F037         	movff	CANsendMessage@identifier+3,??_CANsendMessage+3
  1053  003110  0E04               	movlw	4
  1054  003112  D005               	goto	u2700
  1055  003114                     u2705:
  1056  003114  90D8               	bcf	status,0,c
  1057  003116  3237               	rrcf	??_CANsendMessage+3,f,c
  1058  003118  3236               	rrcf	??_CANsendMessage+2,f,c
  1059  00311A  3235               	rrcf	??_CANsendMessage+1,f,c
  1060  00311C  3234               	rrcf	??_CANsendMessage,f,c
  1061  00311E                     u2700:
  1062  00311E  2EE8               	decfsz	wreg,f,c
  1063  003120  D7F9               	goto	u2705
  1064  003122  C034  F038         	movff	??_CANsendMessage,CANsendMessage@tamp
  1065  003126  C035  F039         	movff	??_CANsendMessage+1,CANsendMessage@tamp+1
  1066  00312A  C036  F03A         	movff	??_CANsendMessage+2,CANsendMessage@tamp+2
  1067  00312E  C037  F03B         	movff	??_CANsendMessage+3,CANsendMessage@tamp+3
  1068                           
  1069                           ; BSR set to: 15
  1070                           ;inc\CANlib.h: 340: tamp = tamp & 0x000000FF;
  1071  003132  5038               	movf	CANsendMessage@tamp,w,c
  1072  003134  6E38               	movwf	CANsendMessage@tamp,c
  1073  003136  6A39               	clrf	CANsendMessage@tamp+1,c
  1074  003138  6A3A               	clrf	CANsendMessage@tamp+2,c
  1075  00313A  6A3B               	clrf	CANsendMessage@tamp+3,c
  1076                           
  1077                           ; BSR set to: 15
  1078                           ;inc\CANlib.h: 341: TXB0SIDH = (unsigned char) tamp;
  1079  00313C  C038  FF41         	movff	CANsendMessage@tamp,3905	;volatile
  1080                           
  1081                           ; BSR set to: 15
  1082                           ;inc\CANlib.h: 343: tamp = identifier & 0x00000007;
  1083  003140  0E07               	movlw	7
  1084  003142  142C               	andwf	CANsendMessage@identifier,w,c
  1085  003144  6E38               	movwf	CANsendMessage@tamp,c
  1086  003146  0E00               	movlw	0
  1087  003148  142D               	andwf	CANsendMessage@identifier+1,w,c
  1088  00314A  6E39               	movwf	CANsendMessage@tamp+1,c
  1089  00314C  0E00               	movlw	0
  1090  00314E  142E               	andwf	CANsendMessage@identifier+2,w,c
  1091  003150  6E3A               	movwf	CANsendMessage@tamp+2,c
  1092  003152  0E00               	movlw	0
  1093  003154  142F               	andwf	CANsendMessage@identifier+3,w,c
  1094  003156  6E3B               	movwf	CANsendMessage@tamp+3,c
  1095                           
  1096                           ; BSR set to: 15
  1097                           ;inc\CANlib.h: 344: tamp = tamp << 5;
  1098  003158  C038  F034         	movff	CANsendMessage@tamp,??_CANsendMessage
  1099  00315C  C039  F035         	movff	CANsendMessage@tamp+1,??_CANsendMessage+1
  1100  003160  C03A  F036         	movff	CANsendMessage@tamp+2,??_CANsendMessage+2
  1101  003164  C03B  F037         	movff	CANsendMessage@tamp+3,??_CANsendMessage+3
  1102  003168  0E05               	movlw	5
  1103  00316A                     u2715:
  1104  00316A  90D8               	bcf	status,0,c
  1105  00316C  3634               	rlcf	??_CANsendMessage,f,c
  1106  00316E  3635               	rlcf	??_CANsendMessage+1,f,c
  1107  003170  3636               	rlcf	??_CANsendMessage+2,f,c
  1108  003172  3637               	rlcf	??_CANsendMessage+3,f,c
  1109  003174  2EE8               	decfsz	wreg,f,c
  1110  003176  D7F9               	goto	u2715
  1111  003178  C034  F038         	movff	??_CANsendMessage,CANsendMessage@tamp
  1112  00317C  C035  F039         	movff	??_CANsendMessage+1,CANsendMessage@tamp+1
  1113  003180  C036  F03A         	movff	??_CANsendMessage+2,CANsendMessage@tamp+2
  1114  003184  C037  F03B         	movff	??_CANsendMessage+3,CANsendMessage@tamp+3
  1115                           
  1116                           ; BSR set to: 15
  1117                           ;inc\CANlib.h: 345: TXB0SIDL = TXB0SIDL & 0b00011111;
  1118  003188  010F               	movlb	15	; () banked
  1119  00318A  5142               	movf	66,w,b	;volatile
  1120  00318C  0B1F               	andlw	31
  1121  00318E  010F               	movlb	15	; () banked
  1122  003190  6F42               	movwf	66,b	;volatile
  1123                           
  1124                           ; BSR set to: 15
  1125                           ;inc\CANlib.h: 346: TXB0SIDL = (unsigned char) tamp;
  1126  003192  C038  FF42         	movff	CANsendMessage@tamp,3906	;volatile
  1127  003196                     l2680:
  1128                           
  1129                           ; BSR set to: 15
  1130                           ;inc\CANlib.h: 347: }
  1131                           ;inc\CANlib.h: 349: if (0b00000001 & flags)
  1132  003196  A033               	btfss	CANsendMessage@flags,0,c
  1133  003198  D003               	goto	l343
  1134                           
  1135                           ; BSR set to: 15
  1136                           ;inc\CANlib.h: 350: TXB0CONbits.TXPRI0 = 0x01;
  1137  00319A  010F               	movlb	15	; () banked
  1138  00319C  8140               	bsf	64,0,b	;volatile
  1139  00319E  D002               	goto	l344
  1140  0031A0                     l343:
  1141                           
  1142                           ; BSR set to: 15
  1143                           ;inc\CANlib.h: 351: else
  1144                           ;inc\CANlib.h: 352: TXB0CONbits.TXPRI0 = 0x00;
  1145  0031A0  010F               	movlb	15	; () banked
  1146  0031A2  9140               	bcf	64,0,b	;volatile
  1147  0031A4                     l344:
  1148                           
  1149                           ; BSR set to: 15
  1150                           ;inc\CANlib.h: 353: if (0b00000010 & flags)
  1151  0031A4  A233               	btfss	CANsendMessage@flags,1,c
  1152  0031A6  D003               	goto	l345
  1153                           
  1154                           ; BSR set to: 15
  1155                           ;inc\CANlib.h: 354: TXB0CONbits.TXPRI1 = 0x01;
  1156  0031A8  010F               	movlb	15	; () banked
  1157  0031AA  8340               	bsf	64,1,b	;volatile
  1158  0031AC  D002               	goto	l2686
  1159  0031AE                     l345:
  1160                           
  1161                           ; BSR set to: 15
  1162                           ;inc\CANlib.h: 355: else
  1163                           ;inc\CANlib.h: 356: TXB0CONbits.TXPRI1 = 0x00;
  1164  0031AE  010F               	movlb	15	; () banked
  1165  0031B0  9340               	bcf	64,1,b	;volatile
  1166  0031B2                     l2686:
  1167                           
  1168                           ; BSR set to: 15
  1169                           ;inc\CANlib.h: 358: TXB0D0 = data[0];
  1170  0031B2  C030  FFD9         	movff	CANsendMessage@data,fsr2l
  1171  0031B6  C031  FFDA         	movff	CANsendMessage@data+1,fsr2h
  1172  0031BA  50DF               	movf	indf2,w,c
  1173  0031BC  010F               	movlb	15	; () banked
  1174  0031BE  6F46               	movwf	70,b	;volatile
  1175                           
  1176                           ; BSR set to: 15
  1177                           ;inc\CANlib.h: 359: TXB0D1 = data[1];
  1178  0031C0  EE20 F001          	lfsr	2,1
  1179  0031C4  5030               	movf	CANsendMessage@data,w,c
  1180  0031C6  26D9               	addwf	fsr2l,f,c
  1181  0031C8  5031               	movf	CANsendMessage@data+1,w,c
  1182  0031CA  22DA               	addwfc	fsr2h,f,c
  1183  0031CC  50DF               	movf	indf2,w,c
  1184  0031CE  010F               	movlb	15	; () banked
  1185  0031D0  6F47               	movwf	71,b	;volatile
  1186                           
  1187                           ; BSR set to: 15
  1188                           ;inc\CANlib.h: 360: TXB0D2 = data[2];
  1189  0031D2  EE20 F002          	lfsr	2,2
  1190  0031D6  5030               	movf	CANsendMessage@data,w,c
  1191  0031D8  26D9               	addwf	fsr2l,f,c
  1192  0031DA  5031               	movf	CANsendMessage@data+1,w,c
  1193  0031DC  22DA               	addwfc	fsr2h,f,c
  1194  0031DE  50DF               	movf	indf2,w,c
  1195  0031E0  010F               	movlb	15	; () banked
  1196  0031E2  6F48               	movwf	72,b	;volatile
  1197                           
  1198                           ; BSR set to: 15
  1199                           ;inc\CANlib.h: 361: TXB0D3 = data[3];
  1200  0031E4  EE20 F003          	lfsr	2,3
  1201  0031E8  5030               	movf	CANsendMessage@data,w,c
  1202  0031EA  26D9               	addwf	fsr2l,f,c
  1203  0031EC  5031               	movf	CANsendMessage@data+1,w,c
  1204  0031EE  22DA               	addwfc	fsr2h,f,c
  1205  0031F0  50DF               	movf	indf2,w,c
  1206  0031F2  010F               	movlb	15	; () banked
  1207  0031F4  6F49               	movwf	73,b	;volatile
  1208                           
  1209                           ; BSR set to: 15
  1210                           ;inc\CANlib.h: 362: TXB0D4 = data[4];
  1211  0031F6  EE20 F004          	lfsr	2,4
  1212  0031FA  5030               	movf	CANsendMessage@data,w,c
  1213  0031FC  26D9               	addwf	fsr2l,f,c
  1214  0031FE  5031               	movf	CANsendMessage@data+1,w,c
  1215  003200  22DA               	addwfc	fsr2h,f,c
  1216  003202  50DF               	movf	indf2,w,c
  1217  003204  010F               	movlb	15	; () banked
  1218  003206  6F4A               	movwf	74,b	;volatile
  1219                           
  1220                           ; BSR set to: 15
  1221                           ;inc\CANlib.h: 363: TXB0D5 = data[5];
  1222  003208  EE20 F005          	lfsr	2,5
  1223  00320C  5030               	movf	CANsendMessage@data,w,c
  1224  00320E  26D9               	addwf	fsr2l,f,c
  1225  003210  5031               	movf	CANsendMessage@data+1,w,c
  1226  003212  22DA               	addwfc	fsr2h,f,c
  1227  003214  50DF               	movf	indf2,w,c
  1228  003216  010F               	movlb	15	; () banked
  1229  003218  6F4B               	movwf	75,b	;volatile
  1230                           
  1231                           ; BSR set to: 15
  1232                           ;inc\CANlib.h: 364: TXB0D6 = data[6];
  1233  00321A  EE20 F006          	lfsr	2,6
  1234  00321E  5030               	movf	CANsendMessage@data,w,c
  1235  003220  26D9               	addwf	fsr2l,f,c
  1236  003222  5031               	movf	CANsendMessage@data+1,w,c
  1237  003224  22DA               	addwfc	fsr2h,f,c
  1238  003226  50DF               	movf	indf2,w,c
  1239  003228  010F               	movlb	15	; () banked
  1240  00322A  6F4C               	movwf	76,b	;volatile
  1241                           
  1242                           ; BSR set to: 15
  1243                           ;inc\CANlib.h: 365: TXB0D7 = data[7];
  1244  00322C  EE20 F007          	lfsr	2,7
  1245  003230  5030               	movf	CANsendMessage@data,w,c
  1246  003232  26D9               	addwf	fsr2l,f,c
  1247  003234  5031               	movf	CANsendMessage@data+1,w,c
  1248  003236  22DA               	addwfc	fsr2h,f,c
  1249  003238  50DF               	movf	indf2,w,c
  1250  00323A  010F               	movlb	15	; () banked
  1251  00323C  6F4D               	movwf	77,b	;volatile
  1252                           
  1253                           ; BSR set to: 15
  1254                           ;inc\CANlib.h: 367: TXB0CONbits.TXREQ = 0x01;
  1255  00323E  010F               	movlb	15	; () banked
  1256  003240  8740               	bsf	64,3,b	;volatile
  1257                           
  1258                           ; BSR set to: 15
  1259                           ;inc\CANlib.h: 368: return;
  1260  003242  0012               	return	
  1261  003244                     l333:
  1262                           
  1263                           ; BSR set to: 15
  1264                           ;inc\CANlib.h: 369: }
  1265                           ;inc\CANlib.h: 373: if (TXB1CONbits.TXREQ == 0)
  1266  003244  010F               	movlb	15	; () banked
  1267  003246  B730               	btfsc	48,3,b	;volatile
  1268  003248  D115               	goto	l348
  1269                           
  1270                           ; BSR set to: 15
  1271                           ;inc\CANlib.h: 374: { TXB1DLC = dataLength;
  1272  00324A  C032  FF35         	movff	CANsendMessage@dataLength,3893	;volatile
  1273                           
  1274                           ;inc\CANlib.h: 376: if (0b01000000 & flags)
  1275  00324E  AC33               	btfss	CANsendMessage@flags,6,c
  1276  003250  D003               	goto	l349
  1277                           
  1278                           ; BSR set to: 15
  1279                           ;inc\CANlib.h: 377: TXB1DLCbits.TXRTR = 0x01;
  1280  003252  010F               	movlb	15	; () banked
  1281  003254  8D35               	bsf	53,6,b	;volatile
  1282  003256  D002               	goto	l350
  1283  003258                     l349:
  1284                           
  1285                           ; BSR set to: 15
  1286                           ;inc\CANlib.h: 378: else
  1287                           ;inc\CANlib.h: 379: TXB1DLCbits.TXRTR = 0x00;
  1288  003258  010F               	movlb	15	; () banked
  1289  00325A  9D35               	bcf	53,6,b	;volatile
  1290  00325C                     l350:
  1291                           
  1292                           ; BSR set to: 15
  1293                           ;inc\CANlib.h: 381: if (CAN_TX_FRAME_MASK & flags)
  1294  00325C  A633               	btfss	CANsendMessage@flags,3,c
  1295  00325E  D066               	goto	l351
  1296                           
  1297                           ; BSR set to: 15
  1298                           ;inc\CANlib.h: 382: {
  1299                           ;inc\CANlib.h: 383: tamp = identifier & 0x000000FF;
  1300  003260  502C               	movf	CANsendMessage@identifier,w,c
  1301  003262  6E38               	movwf	CANsendMessage@tamp,c
  1302  003264  6A39               	clrf	CANsendMessage@tamp+1,c
  1303  003266  6A3A               	clrf	CANsendMessage@tamp+2,c
  1304  003268  6A3B               	clrf	CANsendMessage@tamp+3,c
  1305                           
  1306                           ; BSR set to: 15
  1307                           ;inc\CANlib.h: 384: TXB1EIDL = (unsigned char) tamp;
  1308  00326A  C038  FF34         	movff	CANsendMessage@tamp,3892	;volatile
  1309                           
  1310                           ; BSR set to: 15
  1311                           ;inc\CANlib.h: 386: tamp = identifier & 0x0000FF00;
  1312  00326E  0E00               	movlw	0
  1313  003270  142C               	andwf	CANsendMessage@identifier,w,c
  1314  003272  6E38               	movwf	CANsendMessage@tamp,c
  1315  003274  0EFF               	movlw	255
  1316  003276  142D               	andwf	CANsendMessage@identifier+1,w,c
  1317  003278  6E39               	movwf	CANsendMessage@tamp+1,c
  1318  00327A  0E00               	movlw	0
  1319  00327C  142E               	andwf	CANsendMessage@identifier+2,w,c
  1320  00327E  6E3A               	movwf	CANsendMessage@tamp+2,c
  1321  003280  0E00               	movlw	0
  1322  003282  142F               	andwf	CANsendMessage@identifier+3,w,c
  1323  003284  6E3B               	movwf	CANsendMessage@tamp+3,c
  1324                           
  1325                           ; BSR set to: 15
  1326                           ;inc\CANlib.h: 387: tamp = tamp >> 8;
  1327  003286  C038  F034         	movff	CANsendMessage@tamp,??_CANsendMessage
  1328  00328A  C039  F035         	movff	CANsendMessage@tamp+1,??_CANsendMessage+1
  1329  00328E  C03A  F036         	movff	CANsendMessage@tamp+2,??_CANsendMessage+2
  1330  003292  C03B  F037         	movff	CANsendMessage@tamp+3,??_CANsendMessage+3
  1331  003296  C035  F034         	movff	??_CANsendMessage+1,??_CANsendMessage
  1332  00329A  C036  F035         	movff	??_CANsendMessage+2,??_CANsendMessage+1
  1333  00329E  C037  F036         	movff	??_CANsendMessage+3,??_CANsendMessage+2
  1334  0032A2  6A37               	clrf	??_CANsendMessage+3,c
  1335  0032A4  C034  F038         	movff	??_CANsendMessage,CANsendMessage@tamp
  1336  0032A8  C035  F039         	movff	??_CANsendMessage+1,CANsendMessage@tamp+1
  1337  0032AC  C036  F03A         	movff	??_CANsendMessage+2,CANsendMessage@tamp+2
  1338  0032B0  C037  F03B         	movff	??_CANsendMessage+3,CANsendMessage@tamp+3
  1339                           
  1340                           ; BSR set to: 15
  1341                           ;inc\CANlib.h: 388: TXB1EIDH = (unsigned char) tamp;
  1342  0032B4  C038  FF33         	movff	CANsendMessage@tamp,3891	;volatile
  1343                           
  1344                           ; BSR set to: 15
  1345                           ;inc\CANlib.h: 390: TXB1SIDL = 0x00;
  1346  0032B8  0E00               	movlw	0
  1347  0032BA  010F               	movlb	15	; () banked
  1348  0032BC  6F32               	movwf	50,b	;volatile
  1349                           
  1350                           ; BSR set to: 15
  1351                           ;inc\CANlib.h: 391: TXB1SIDLbits.EXIDE = 0x01;
  1352  0032BE  010F               	movlb	15	; () banked
  1353  0032C0  8732               	bsf	50,3,b	;volatile
  1354                           
  1355                           ; BSR set to: 15
  1356                           ;inc\CANlib.h: 393: if (identifier & 0x00010000)
  1357  0032C2  A02E               	btfss	CANsendMessage@identifier+2,0,c
  1358  0032C4  D002               	goto	l352
  1359                           
  1360                           ; BSR set to: 15
  1361                           ;inc\CANlib.h: 394: TXB1SIDLbits.EID16 = 0x01;
  1362  0032C6  010F               	movlb	15	; () banked
  1363  0032C8  8132               	bsf	50,0,b	;volatile
  1364  0032CA                     l352:
  1365                           
  1366                           ; BSR set to: 15
  1367                           ;inc\CANlib.h: 395: if (identifier & 0x00020000)
  1368  0032CA  A22E               	btfss	CANsendMessage@identifier+2,1,c
  1369  0032CC  D002               	goto	l353
  1370                           
  1371                           ; BSR set to: 15
  1372                           ;inc\CANlib.h: 396: TXB1SIDLbits.EID17 = 0x01;
  1373  0032CE  010F               	movlb	15	; () banked
  1374  0032D0  8332               	bsf	50,1,b	;volatile
  1375  0032D2                     l353:
  1376                           
  1377                           ; BSR set to: 15
  1378                           ;inc\CANlib.h: 397: if (identifier & 0x00040000)
  1379  0032D2  A42E               	btfss	CANsendMessage@identifier+2,2,c
  1380  0032D4  D002               	goto	l354
  1381                           
  1382                           ; BSR set to: 15
  1383                           ;inc\CANlib.h: 398: TXB1SIDLbits.SID0 = 0x01;
  1384  0032D6  010F               	movlb	15	; () banked
  1385  0032D8  8B32               	bsf	50,5,b	;volatile
  1386  0032DA                     l354:
  1387                           
  1388                           ; BSR set to: 15
  1389                           ;inc\CANlib.h: 399: if (identifier & 0x00080000)
  1390  0032DA  A62E               	btfss	CANsendMessage@identifier+2,3,c
  1391  0032DC  D002               	goto	l355
  1392                           
  1393                           ; BSR set to: 15
  1394                           ;inc\CANlib.h: 400: TXB1SIDLbits.SID1 = 0x01;
  1395  0032DE  010F               	movlb	15	; () banked
  1396  0032E0  8D32               	bsf	50,6,b	;volatile
  1397  0032E2                     l355:
  1398                           
  1399                           ; BSR set to: 15
  1400                           ;inc\CANlib.h: 401: if (identifier & 0x00100000)
  1401  0032E2  A82E               	btfss	CANsendMessage@identifier+2,4,c
  1402  0032E4  D002               	goto	l2736
  1403                           
  1404                           ; BSR set to: 15
  1405                           ;inc\CANlib.h: 402: TXB1SIDLbits.SID2 = 0x01;
  1406  0032E6  010F               	movlb	15	; () banked
  1407  0032E8  8F32               	bsf	50,7,b	;volatile
  1408  0032EA                     l2736:
  1409                           
  1410                           ; BSR set to: 15
  1411                           ;inc\CANlib.h: 404: tamp = (identifier >> 21);
  1412  0032EA  C02C  F034         	movff	CANsendMessage@identifier,??_CANsendMessage
  1413  0032EE  C02D  F035         	movff	CANsendMessage@identifier+1,??_CANsendMessage+1
  1414  0032F2  C02E  F036         	movff	CANsendMessage@identifier+2,??_CANsendMessage+2
  1415  0032F6  C02F  F037         	movff	CANsendMessage@identifier+3,??_CANsendMessage+3
  1416  0032FA  0E16               	movlw	22
  1417  0032FC  D005               	goto	u2820
  1418  0032FE                     u2825:
  1419  0032FE  90D8               	bcf	status,0,c
  1420  003300  3237               	rrcf	??_CANsendMessage+3,f,c
  1421  003302  3236               	rrcf	??_CANsendMessage+2,f,c
  1422  003304  3235               	rrcf	??_CANsendMessage+1,f,c
  1423  003306  3234               	rrcf	??_CANsendMessage,f,c
  1424  003308                     u2820:
  1425  003308  2EE8               	decfsz	wreg,f,c
  1426  00330A  D7F9               	goto	u2825
  1427  00330C  C034  F038         	movff	??_CANsendMessage,CANsendMessage@tamp
  1428  003310  C035  F039         	movff	??_CANsendMessage+1,CANsendMessage@tamp+1
  1429  003314  C036  F03A         	movff	??_CANsendMessage+2,CANsendMessage@tamp+2
  1430  003318  C037  F03B         	movff	??_CANsendMessage+3,CANsendMessage@tamp+3
  1431                           
  1432                           ; BSR set to: 15
  1433                           ;inc\CANlib.h: 405: tamp = tamp & 0x000000FF;
  1434  00331C  5038               	movf	CANsendMessage@tamp,w,c
  1435  00331E  6E38               	movwf	CANsendMessage@tamp,c
  1436  003320  6A39               	clrf	CANsendMessage@tamp+1,c
  1437  003322  6A3A               	clrf	CANsendMessage@tamp+2,c
  1438  003324  6A3B               	clrf	CANsendMessage@tamp+3,c
  1439                           
  1440                           ; BSR set to: 15
  1441                           ;inc\CANlib.h: 406: TXB1SIDH = (unsigned char) tamp;
  1442  003326  C038  FF31         	movff	CANsendMessage@tamp,3889	;volatile
  1443                           
  1444                           ;inc\CANlib.h: 407: }
  1445  00332A  D04D               	goto	l2756
  1446  00332C                     l351:
  1447                           
  1448                           ; BSR set to: 15
  1449                           ;inc\CANlib.h: 409: else
  1450                           ;inc\CANlib.h: 411: {
  1451                           ;inc\CANlib.h: 412: TXB1SIDLbits.EXIDE = 0x00;
  1452  00332C  010F               	movlb	15	; () banked
  1453  00332E  9732               	bcf	50,3,b	;volatile
  1454                           
  1455                           ; BSR set to: 15
  1456                           ;inc\CANlib.h: 414: tamp = (identifier >> 3);
  1457  003330  C02C  F034         	movff	CANsendMessage@identifier,??_CANsendMessage
  1458  003334  C02D  F035         	movff	CANsendMessage@identifier+1,??_CANsendMessage+1
  1459  003338  C02E  F036         	movff	CANsendMessage@identifier+2,??_CANsendMessage+2
  1460  00333C  C02F  F037         	movff	CANsendMessage@identifier+3,??_CANsendMessage+3
  1461  003340  0E04               	movlw	4
  1462  003342  D005               	goto	u2830
  1463  003344                     u2835:
  1464  003344  90D8               	bcf	status,0,c
  1465  003346  3237               	rrcf	??_CANsendMessage+3,f,c
  1466  003348  3236               	rrcf	??_CANsendMessage+2,f,c
  1467  00334A  3235               	rrcf	??_CANsendMessage+1,f,c
  1468  00334C  3234               	rrcf	??_CANsendMessage,f,c
  1469  00334E                     u2830:
  1470  00334E  2EE8               	decfsz	wreg,f,c
  1471  003350  D7F9               	goto	u2835
  1472  003352  C034  F038         	movff	??_CANsendMessage,CANsendMessage@tamp
  1473  003356  C035  F039         	movff	??_CANsendMessage+1,CANsendMessage@tamp+1
  1474  00335A  C036  F03A         	movff	??_CANsendMessage+2,CANsendMessage@tamp+2
  1475  00335E  C037  F03B         	movff	??_CANsendMessage+3,CANsendMessage@tamp+3
  1476                           
  1477                           ; BSR set to: 15
  1478                           ;inc\CANlib.h: 415: tamp = tamp & 0x000000FF;
  1479  003362  5038               	movf	CANsendMessage@tamp,w,c
  1480  003364  6E38               	movwf	CANsendMessage@tamp,c
  1481  003366  6A39               	clrf	CANsendMessage@tamp+1,c
  1482  003368  6A3A               	clrf	CANsendMessage@tamp+2,c
  1483  00336A  6A3B               	clrf	CANsendMessage@tamp+3,c
  1484                           
  1485                           ; BSR set to: 15
  1486                           ;inc\CANlib.h: 416: TXB1SIDH = (unsigned char) tamp;
  1487  00336C  C038  FF31         	movff	CANsendMessage@tamp,3889	;volatile
  1488                           
  1489                           ; BSR set to: 15
  1490                           ;inc\CANlib.h: 418: tamp = identifier & 0x00000007;
  1491  003370  0E07               	movlw	7
  1492  003372  142C               	andwf	CANsendMessage@identifier,w,c
  1493  003374  6E38               	movwf	CANsendMessage@tamp,c
  1494  003376  0E00               	movlw	0
  1495  003378  142D               	andwf	CANsendMessage@identifier+1,w,c
  1496  00337A  6E39               	movwf	CANsendMessage@tamp+1,c
  1497  00337C  0E00               	movlw	0
  1498  00337E  142E               	andwf	CANsendMessage@identifier+2,w,c
  1499  003380  6E3A               	movwf	CANsendMessage@tamp+2,c
  1500  003382  0E00               	movlw	0
  1501  003384  142F               	andwf	CANsendMessage@identifier+3,w,c
  1502  003386  6E3B               	movwf	CANsendMessage@tamp+3,c
  1503                           
  1504                           ; BSR set to: 15
  1505                           ;inc\CANlib.h: 419: tamp = tamp << 5;
  1506  003388  C038  F034         	movff	CANsendMessage@tamp,??_CANsendMessage
  1507  00338C  C039  F035         	movff	CANsendMessage@tamp+1,??_CANsendMessage+1
  1508  003390  C03A  F036         	movff	CANsendMessage@tamp+2,??_CANsendMessage+2
  1509  003394  C03B  F037         	movff	CANsendMessage@tamp+3,??_CANsendMessage+3
  1510  003398  0E05               	movlw	5
  1511  00339A                     u2845:
  1512  00339A  90D8               	bcf	status,0,c
  1513  00339C  3634               	rlcf	??_CANsendMessage,f,c
  1514  00339E  3635               	rlcf	??_CANsendMessage+1,f,c
  1515  0033A0  3636               	rlcf	??_CANsendMessage+2,f,c
  1516  0033A2  3637               	rlcf	??_CANsendMessage+3,f,c
  1517  0033A4  2EE8               	decfsz	wreg,f,c
  1518  0033A6  D7F9               	goto	u2845
  1519  0033A8  C034  F038         	movff	??_CANsendMessage,CANsendMessage@tamp
  1520  0033AC  C035  F039         	movff	??_CANsendMessage+1,CANsendMessage@tamp+1
  1521  0033B0  C036  F03A         	movff	??_CANsendMessage+2,CANsendMessage@tamp+2
  1522  0033B4  C037  F03B         	movff	??_CANsendMessage+3,CANsendMessage@tamp+3
  1523                           
  1524                           ; BSR set to: 15
  1525                           ;inc\CANlib.h: 420: TXB1SIDL = TXB1SIDL & 0b00011111;
  1526  0033B8  010F               	movlb	15	; () banked
  1527  0033BA  5132               	movf	50,w,b	;volatile
  1528  0033BC  0B1F               	andlw	31
  1529  0033BE  010F               	movlb	15	; () banked
  1530  0033C0  6F32               	movwf	50,b	;volatile
  1531                           
  1532                           ; BSR set to: 15
  1533                           ;inc\CANlib.h: 421: TXB1SIDL = (unsigned char) tamp;
  1534  0033C2  C038  FF32         	movff	CANsendMessage@tamp,3890	;volatile
  1535  0033C6                     l2756:
  1536                           
  1537                           ; BSR set to: 15
  1538                           ;inc\CANlib.h: 422: }
  1539                           ;inc\CANlib.h: 424: if (0b00000001 & flags)
  1540  0033C6  A033               	btfss	CANsendMessage@flags,0,c
  1541  0033C8  D003               	goto	l358
  1542                           
  1543                           ; BSR set to: 15
  1544                           ;inc\CANlib.h: 425: TXB1CONbits.TXPRI0 = 0x01;
  1545  0033CA  010F               	movlb	15	; () banked
  1546  0033CC  8130               	bsf	48,0,b	;volatile
  1547  0033CE  D002               	goto	l359
  1548  0033D0                     l358:
  1549                           
  1550                           ; BSR set to: 15
  1551                           ;inc\CANlib.h: 426: else
  1552                           ;inc\CANlib.h: 427: TXB1CONbits.TXPRI0 = 0x00;
  1553  0033D0  010F               	movlb	15	; () banked
  1554  0033D2  9130               	bcf	48,0,b	;volatile
  1555  0033D4                     l359:
  1556                           
  1557                           ; BSR set to: 15
  1558                           ;inc\CANlib.h: 428: if (0b00000010 & flags)
  1559  0033D4  A233               	btfss	CANsendMessage@flags,1,c
  1560  0033D6  D003               	goto	l360
  1561                           
  1562                           ; BSR set to: 15
  1563                           ;inc\CANlib.h: 429: TXB1CONbits.TXPRI1 = 0x01;
  1564  0033D8  010F               	movlb	15	; () banked
  1565  0033DA  8330               	bsf	48,1,b	;volatile
  1566  0033DC  D002               	goto	l2762
  1567  0033DE                     l360:
  1568                           
  1569                           ; BSR set to: 15
  1570                           ;inc\CANlib.h: 430: else
  1571                           ;inc\CANlib.h: 431: TXB1CONbits.TXPRI1 = 0x00;
  1572  0033DE  010F               	movlb	15	; () banked
  1573  0033E0  9330               	bcf	48,1,b	;volatile
  1574  0033E2                     l2762:
  1575                           
  1576                           ; BSR set to: 15
  1577                           ;inc\CANlib.h: 433: TXB1D0 = data[0];
  1578  0033E2  C030  FFD9         	movff	CANsendMessage@data,fsr2l
  1579  0033E6  C031  FFDA         	movff	CANsendMessage@data+1,fsr2h
  1580  0033EA  50DF               	movf	indf2,w,c
  1581  0033EC  010F               	movlb	15	; () banked
  1582  0033EE  6F36               	movwf	54,b	;volatile
  1583                           
  1584                           ; BSR set to: 15
  1585                           ;inc\CANlib.h: 434: TXB1D1 = data[1];
  1586  0033F0  EE20 F001          	lfsr	2,1
  1587  0033F4  5030               	movf	CANsendMessage@data,w,c
  1588  0033F6  26D9               	addwf	fsr2l,f,c
  1589  0033F8  5031               	movf	CANsendMessage@data+1,w,c
  1590  0033FA  22DA               	addwfc	fsr2h,f,c
  1591  0033FC  50DF               	movf	indf2,w,c
  1592  0033FE  010F               	movlb	15	; () banked
  1593  003400  6F37               	movwf	55,b	;volatile
  1594                           
  1595                           ; BSR set to: 15
  1596                           ;inc\CANlib.h: 435: TXB1D2 = data[2];
  1597  003402  EE20 F002          	lfsr	2,2
  1598  003406  5030               	movf	CANsendMessage@data,w,c
  1599  003408  26D9               	addwf	fsr2l,f,c
  1600  00340A  5031               	movf	CANsendMessage@data+1,w,c
  1601  00340C  22DA               	addwfc	fsr2h,f,c
  1602  00340E  50DF               	movf	indf2,w,c
  1603  003410  010F               	movlb	15	; () banked
  1604  003412  6F38               	movwf	56,b	;volatile
  1605                           
  1606                           ; BSR set to: 15
  1607                           ;inc\CANlib.h: 436: TXB1D3 = data[3];
  1608  003414  EE20 F003          	lfsr	2,3
  1609  003418  5030               	movf	CANsendMessage@data,w,c
  1610  00341A  26D9               	addwf	fsr2l,f,c
  1611  00341C  5031               	movf	CANsendMessage@data+1,w,c
  1612  00341E  22DA               	addwfc	fsr2h,f,c
  1613  003420  50DF               	movf	indf2,w,c
  1614  003422  010F               	movlb	15	; () banked
  1615  003424  6F39               	movwf	57,b	;volatile
  1616                           
  1617                           ; BSR set to: 15
  1618                           ;inc\CANlib.h: 437: TXB1D4 = data[4];
  1619  003426  EE20 F004          	lfsr	2,4
  1620  00342A  5030               	movf	CANsendMessage@data,w,c
  1621  00342C  26D9               	addwf	fsr2l,f,c
  1622  00342E  5031               	movf	CANsendMessage@data+1,w,c
  1623  003430  22DA               	addwfc	fsr2h,f,c
  1624  003432  50DF               	movf	indf2,w,c
  1625  003434  010F               	movlb	15	; () banked
  1626  003436  6F3A               	movwf	58,b	;volatile
  1627                           
  1628                           ; BSR set to: 15
  1629                           ;inc\CANlib.h: 438: TXB1D5 = data[5];
  1630  003438  EE20 F005          	lfsr	2,5
  1631  00343C  5030               	movf	CANsendMessage@data,w,c
  1632  00343E  26D9               	addwf	fsr2l,f,c
  1633  003440  5031               	movf	CANsendMessage@data+1,w,c
  1634  003442  22DA               	addwfc	fsr2h,f,c
  1635  003444  50DF               	movf	indf2,w,c
  1636  003446  010F               	movlb	15	; () banked
  1637  003448  6F3B               	movwf	59,b	;volatile
  1638                           
  1639                           ; BSR set to: 15
  1640                           ;inc\CANlib.h: 439: TXB1D6 = data[6];
  1641  00344A  EE20 F006          	lfsr	2,6
  1642  00344E  5030               	movf	CANsendMessage@data,w,c
  1643  003450  26D9               	addwf	fsr2l,f,c
  1644  003452  5031               	movf	CANsendMessage@data+1,w,c
  1645  003454  22DA               	addwfc	fsr2h,f,c
  1646  003456  50DF               	movf	indf2,w,c
  1647  003458  010F               	movlb	15	; () banked
  1648  00345A  6F3C               	movwf	60,b	;volatile
  1649                           
  1650                           ; BSR set to: 15
  1651                           ;inc\CANlib.h: 440: TXB1D7 = data[7];
  1652  00345C  EE20 F007          	lfsr	2,7
  1653  003460  5030               	movf	CANsendMessage@data,w,c
  1654  003462  26D9               	addwf	fsr2l,f,c
  1655  003464  5031               	movf	CANsendMessage@data+1,w,c
  1656  003466  22DA               	addwfc	fsr2h,f,c
  1657  003468  50DF               	movf	indf2,w,c
  1658  00346A  010F               	movlb	15	; () banked
  1659  00346C  6F3D               	movwf	61,b	;volatile
  1660                           
  1661                           ; BSR set to: 15
  1662                           ;inc\CANlib.h: 442: TXB1CONbits.TXREQ = 0x01;
  1663  00346E  010F               	movlb	15	; () banked
  1664  003470  8730               	bsf	48,3,b	;volatile
  1665                           
  1666                           ; BSR set to: 15
  1667                           ;inc\CANlib.h: 444: return;
  1668  003472  0012               	return	
  1669  003474                     l348:
  1670                           
  1671                           ; BSR set to: 15
  1672                           ;inc\CANlib.h: 445: }
  1673                           ;inc\CANlib.h: 449: if (TXB2CONbits.TXREQ == 0)
  1674  003474  010F               	movlb	15	; () banked
  1675  003476  B720               	btfsc	32,3,b	;volatile
  1676  003478  0012               	return	
  1677                           
  1678                           ; BSR set to: 15
  1679                           ;inc\CANlib.h: 450: { TXB2DLC = dataLength;
  1680  00347A  C032  FF25         	movff	CANsendMessage@dataLength,3877	;volatile
  1681                           
  1682                           ;inc\CANlib.h: 452: if (0b01000000 & flags)
  1683  00347E  AC33               	btfss	CANsendMessage@flags,6,c
  1684  003480  D003               	goto	l363
  1685                           
  1686                           ; BSR set to: 15
  1687                           ;inc\CANlib.h: 453: TXB2DLCbits.TXRTR = 0x01;
  1688  003482  010F               	movlb	15	; () banked
  1689  003484  8D25               	bsf	37,6,b	;volatile
  1690  003486  D002               	goto	l364
  1691  003488                     l363:
  1692                           
  1693                           ; BSR set to: 15
  1694                           ;inc\CANlib.h: 454: else
  1695                           ;inc\CANlib.h: 455: TXB2DLCbits.TXRTR = 0x00;
  1696  003488  010F               	movlb	15	; () banked
  1697  00348A  9D25               	bcf	37,6,b	;volatile
  1698  00348C                     l364:
  1699                           
  1700                           ; BSR set to: 15
  1701                           ;inc\CANlib.h: 457: if (CAN_TX_FRAME_MASK & flags)
  1702  00348C  A633               	btfss	CANsendMessage@flags,3,c
  1703  00348E  D066               	goto	l365
  1704                           
  1705                           ; BSR set to: 15
  1706                           ;inc\CANlib.h: 458: {
  1707                           ;inc\CANlib.h: 459: tamp = identifier & 0x000000FF;
  1708  003490  502C               	movf	CANsendMessage@identifier,w,c
  1709  003492  6E38               	movwf	CANsendMessage@tamp,c
  1710  003494  6A39               	clrf	CANsendMessage@tamp+1,c
  1711  003496  6A3A               	clrf	CANsendMessage@tamp+2,c
  1712  003498  6A3B               	clrf	CANsendMessage@tamp+3,c
  1713                           
  1714                           ; BSR set to: 15
  1715                           ;inc\CANlib.h: 460: TXB2EIDL = (unsigned char) tamp;
  1716  00349A  C038  FF24         	movff	CANsendMessage@tamp,3876	;volatile
  1717                           
  1718                           ; BSR set to: 15
  1719                           ;inc\CANlib.h: 462: tamp = identifier & 0x0000FF00;
  1720  00349E  0E00               	movlw	0
  1721  0034A0  142C               	andwf	CANsendMessage@identifier,w,c
  1722  0034A2  6E38               	movwf	CANsendMessage@tamp,c
  1723  0034A4  0EFF               	movlw	255
  1724  0034A6  142D               	andwf	CANsendMessage@identifier+1,w,c
  1725  0034A8  6E39               	movwf	CANsendMessage@tamp+1,c
  1726  0034AA  0E00               	movlw	0
  1727  0034AC  142E               	andwf	CANsendMessage@identifier+2,w,c
  1728  0034AE  6E3A               	movwf	CANsendMessage@tamp+2,c
  1729  0034B0  0E00               	movlw	0
  1730  0034B2  142F               	andwf	CANsendMessage@identifier+3,w,c
  1731  0034B4  6E3B               	movwf	CANsendMessage@tamp+3,c
  1732                           
  1733                           ; BSR set to: 15
  1734                           ;inc\CANlib.h: 463: tamp = tamp >> 8;
  1735  0034B6  C038  F034         	movff	CANsendMessage@tamp,??_CANsendMessage
  1736  0034BA  C039  F035         	movff	CANsendMessage@tamp+1,??_CANsendMessage+1
  1737  0034BE  C03A  F036         	movff	CANsendMessage@tamp+2,??_CANsendMessage+2
  1738  0034C2  C03B  F037         	movff	CANsendMessage@tamp+3,??_CANsendMessage+3
  1739  0034C6  C035  F034         	movff	??_CANsendMessage+1,??_CANsendMessage
  1740  0034CA  C036  F035         	movff	??_CANsendMessage+2,??_CANsendMessage+1
  1741  0034CE  C037  F036         	movff	??_CANsendMessage+3,??_CANsendMessage+2
  1742  0034D2  6A37               	clrf	??_CANsendMessage+3,c
  1743  0034D4  C034  F038         	movff	??_CANsendMessage,CANsendMessage@tamp
  1744  0034D8  C035  F039         	movff	??_CANsendMessage+1,CANsendMessage@tamp+1
  1745  0034DC  C036  F03A         	movff	??_CANsendMessage+2,CANsendMessage@tamp+2
  1746  0034E0  C037  F03B         	movff	??_CANsendMessage+3,CANsendMessage@tamp+3
  1747                           
  1748                           ; BSR set to: 15
  1749                           ;inc\CANlib.h: 464: TXB2EIDH = (unsigned char) tamp;
  1750  0034E4  C038  FF23         	movff	CANsendMessage@tamp,3875	;volatile
  1751                           
  1752                           ; BSR set to: 15
  1753                           ;inc\CANlib.h: 466: TXB2SIDL = 0x00;
  1754  0034E8  0E00               	movlw	0
  1755  0034EA  010F               	movlb	15	; () banked
  1756  0034EC  6F22               	movwf	34,b	;volatile
  1757                           
  1758                           ; BSR set to: 15
  1759                           ;inc\CANlib.h: 467: TXB2SIDLbits.EXIDE = 0x01;
  1760  0034EE  010F               	movlb	15	; () banked
  1761  0034F0  8722               	bsf	34,3,b	;volatile
  1762                           
  1763                           ; BSR set to: 15
  1764                           ;inc\CANlib.h: 469: if (identifier & 0x00010000)
  1765  0034F2  A02E               	btfss	CANsendMessage@identifier+2,0,c
  1766  0034F4  D002               	goto	l366
  1767                           
  1768                           ; BSR set to: 15
  1769                           ;inc\CANlib.h: 470: TXB2SIDLbits.EID16 = 0x01;
  1770  0034F6  010F               	movlb	15	; () banked
  1771  0034F8  8122               	bsf	34,0,b	;volatile
  1772  0034FA                     l366:
  1773                           
  1774                           ; BSR set to: 15
  1775                           ;inc\CANlib.h: 471: if (identifier & 0x00020000)
  1776  0034FA  A22E               	btfss	CANsendMessage@identifier+2,1,c
  1777  0034FC  D002               	goto	l367
  1778                           
  1779                           ; BSR set to: 15
  1780                           ;inc\CANlib.h: 472: TXB2SIDLbits.EID17 = 0x01;
  1781  0034FE  010F               	movlb	15	; () banked
  1782  003500  8322               	bsf	34,1,b	;volatile
  1783  003502                     l367:
  1784                           
  1785                           ; BSR set to: 15
  1786                           ;inc\CANlib.h: 473: if (identifier & 0x00040000)
  1787  003502  A42E               	btfss	CANsendMessage@identifier+2,2,c
  1788  003504  D002               	goto	l368
  1789                           
  1790                           ; BSR set to: 15
  1791                           ;inc\CANlib.h: 474: TXB2SIDLbits.SID0 = 0x01;
  1792  003506  010F               	movlb	15	; () banked
  1793  003508  8B22               	bsf	34,5,b	;volatile
  1794  00350A                     l368:
  1795                           
  1796                           ; BSR set to: 15
  1797                           ;inc\CANlib.h: 475: if (identifier & 0x00080000)
  1798  00350A  A62E               	btfss	CANsendMessage@identifier+2,3,c
  1799  00350C  D002               	goto	l369
  1800                           
  1801                           ; BSR set to: 15
  1802                           ;inc\CANlib.h: 476: TXB2SIDLbits.SID1 = 0x01;
  1803  00350E  010F               	movlb	15	; () banked
  1804  003510  8D22               	bsf	34,6,b	;volatile
  1805  003512                     l369:
  1806                           
  1807                           ; BSR set to: 15
  1808                           ;inc\CANlib.h: 477: if (identifier & 0x00100000)
  1809  003512  A82E               	btfss	CANsendMessage@identifier+2,4,c
  1810  003514  D002               	goto	l2812
  1811                           
  1812                           ; BSR set to: 15
  1813                           ;inc\CANlib.h: 478: TXB2SIDLbits.SID2 = 0x01;
  1814  003516  010F               	movlb	15	; () banked
  1815  003518  8F22               	bsf	34,7,b	;volatile
  1816  00351A                     l2812:
  1817                           
  1818                           ; BSR set to: 15
  1819                           ;inc\CANlib.h: 480: tamp = (identifier >> 21);
  1820  00351A  C02C  F034         	movff	CANsendMessage@identifier,??_CANsendMessage
  1821  00351E  C02D  F035         	movff	CANsendMessage@identifier+1,??_CANsendMessage+1
  1822  003522  C02E  F036         	movff	CANsendMessage@identifier+2,??_CANsendMessage+2
  1823  003526  C02F  F037         	movff	CANsendMessage@identifier+3,??_CANsendMessage+3
  1824  00352A  0E16               	movlw	22
  1825  00352C  D005               	goto	u2950
  1826  00352E                     u2955:
  1827  00352E  90D8               	bcf	status,0,c
  1828  003530  3237               	rrcf	??_CANsendMessage+3,f,c
  1829  003532  3236               	rrcf	??_CANsendMessage+2,f,c
  1830  003534  3235               	rrcf	??_CANsendMessage+1,f,c
  1831  003536  3234               	rrcf	??_CANsendMessage,f,c
  1832  003538                     u2950:
  1833  003538  2EE8               	decfsz	wreg,f,c
  1834  00353A  D7F9               	goto	u2955
  1835  00353C  C034  F038         	movff	??_CANsendMessage,CANsendMessage@tamp
  1836  003540  C035  F039         	movff	??_CANsendMessage+1,CANsendMessage@tamp+1
  1837  003544  C036  F03A         	movff	??_CANsendMessage+2,CANsendMessage@tamp+2
  1838  003548  C037  F03B         	movff	??_CANsendMessage+3,CANsendMessage@tamp+3
  1839                           
  1840                           ; BSR set to: 15
  1841                           ;inc\CANlib.h: 481: tamp = tamp & 0x000000FF;
  1842  00354C  5038               	movf	CANsendMessage@tamp,w,c
  1843  00354E  6E38               	movwf	CANsendMessage@tamp,c
  1844  003550  6A39               	clrf	CANsendMessage@tamp+1,c
  1845  003552  6A3A               	clrf	CANsendMessage@tamp+2,c
  1846  003554  6A3B               	clrf	CANsendMessage@tamp+3,c
  1847                           
  1848                           ; BSR set to: 15
  1849                           ;inc\CANlib.h: 482: TXB2SIDH = (unsigned char) tamp;
  1850  003556  C038  FF21         	movff	CANsendMessage@tamp,3873	;volatile
  1851                           
  1852                           ;inc\CANlib.h: 483: }
  1853  00355A  D04D               	goto	l2832
  1854  00355C                     l365:
  1855                           
  1856                           ; BSR set to: 15
  1857                           ;inc\CANlib.h: 485: else
  1858                           ;inc\CANlib.h: 487: {
  1859                           ;inc\CANlib.h: 488: TXB2SIDLbits.EXIDE = 0x00;
  1860  00355C  010F               	movlb	15	; () banked
  1861  00355E  9722               	bcf	34,3,b	;volatile
  1862                           
  1863                           ; BSR set to: 15
  1864                           ;inc\CANlib.h: 490: tamp = (identifier >> 3);
  1865  003560  C02C  F034         	movff	CANsendMessage@identifier,??_CANsendMessage
  1866  003564  C02D  F035         	movff	CANsendMessage@identifier+1,??_CANsendMessage+1
  1867  003568  C02E  F036         	movff	CANsendMessage@identifier+2,??_CANsendMessage+2
  1868  00356C  C02F  F037         	movff	CANsendMessage@identifier+3,??_CANsendMessage+3
  1869  003570  0E04               	movlw	4
  1870  003572  D005               	goto	u2960
  1871  003574                     u2965:
  1872  003574  90D8               	bcf	status,0,c
  1873  003576  3237               	rrcf	??_CANsendMessage+3,f,c
  1874  003578  3236               	rrcf	??_CANsendMessage+2,f,c
  1875  00357A  3235               	rrcf	??_CANsendMessage+1,f,c
  1876  00357C  3234               	rrcf	??_CANsendMessage,f,c
  1877  00357E                     u2960:
  1878  00357E  2EE8               	decfsz	wreg,f,c
  1879  003580  D7F9               	goto	u2965
  1880  003582  C034  F038         	movff	??_CANsendMessage,CANsendMessage@tamp
  1881  003586  C035  F039         	movff	??_CANsendMessage+1,CANsendMessage@tamp+1
  1882  00358A  C036  F03A         	movff	??_CANsendMessage+2,CANsendMessage@tamp+2
  1883  00358E  C037  F03B         	movff	??_CANsendMessage+3,CANsendMessage@tamp+3
  1884                           
  1885                           ; BSR set to: 15
  1886                           ;inc\CANlib.h: 491: tamp = tamp & 0x000000FF;
  1887  003592  5038               	movf	CANsendMessage@tamp,w,c
  1888  003594  6E38               	movwf	CANsendMessage@tamp,c
  1889  003596  6A39               	clrf	CANsendMessage@tamp+1,c
  1890  003598  6A3A               	clrf	CANsendMessage@tamp+2,c
  1891  00359A  6A3B               	clrf	CANsendMessage@tamp+3,c
  1892                           
  1893                           ; BSR set to: 15
  1894                           ;inc\CANlib.h: 492: TXB2SIDH = (unsigned char) tamp;
  1895  00359C  C038  FF21         	movff	CANsendMessage@tamp,3873	;volatile
  1896                           
  1897                           ; BSR set to: 15
  1898                           ;inc\CANlib.h: 494: tamp = identifier & 0x00000007;
  1899  0035A0  0E07               	movlw	7
  1900  0035A2  142C               	andwf	CANsendMessage@identifier,w,c
  1901  0035A4  6E38               	movwf	CANsendMessage@tamp,c
  1902  0035A6  0E00               	movlw	0
  1903  0035A8  142D               	andwf	CANsendMessage@identifier+1,w,c
  1904  0035AA  6E39               	movwf	CANsendMessage@tamp+1,c
  1905  0035AC  0E00               	movlw	0
  1906  0035AE  142E               	andwf	CANsendMessage@identifier+2,w,c
  1907  0035B0  6E3A               	movwf	CANsendMessage@tamp+2,c
  1908  0035B2  0E00               	movlw	0
  1909  0035B4  142F               	andwf	CANsendMessage@identifier+3,w,c
  1910  0035B6  6E3B               	movwf	CANsendMessage@tamp+3,c
  1911                           
  1912                           ; BSR set to: 15
  1913                           ;inc\CANlib.h: 495: tamp = tamp << 5;
  1914  0035B8  C038  F034         	movff	CANsendMessage@tamp,??_CANsendMessage
  1915  0035BC  C039  F035         	movff	CANsendMessage@tamp+1,??_CANsendMessage+1
  1916  0035C0  C03A  F036         	movff	CANsendMessage@tamp+2,??_CANsendMessage+2
  1917  0035C4  C03B  F037         	movff	CANsendMessage@tamp+3,??_CANsendMessage+3
  1918  0035C8  0E05               	movlw	5
  1919  0035CA                     u2975:
  1920  0035CA  90D8               	bcf	status,0,c
  1921  0035CC  3634               	rlcf	??_CANsendMessage,f,c
  1922  0035CE  3635               	rlcf	??_CANsendMessage+1,f,c
  1923  0035D0  3636               	rlcf	??_CANsendMessage+2,f,c
  1924  0035D2  3637               	rlcf	??_CANsendMessage+3,f,c
  1925  0035D4  2EE8               	decfsz	wreg,f,c
  1926  0035D6  D7F9               	goto	u2975
  1927  0035D8  C034  F038         	movff	??_CANsendMessage,CANsendMessage@tamp
  1928  0035DC  C035  F039         	movff	??_CANsendMessage+1,CANsendMessage@tamp+1
  1929  0035E0  C036  F03A         	movff	??_CANsendMessage+2,CANsendMessage@tamp+2
  1930  0035E4  C037  F03B         	movff	??_CANsendMessage+3,CANsendMessage@tamp+3
  1931                           
  1932                           ; BSR set to: 15
  1933                           ;inc\CANlib.h: 496: TXB2SIDL = TXB2SIDL & 0b00011111;
  1934  0035E8  010F               	movlb	15	; () banked
  1935  0035EA  5122               	movf	34,w,b	;volatile
  1936  0035EC  0B1F               	andlw	31
  1937  0035EE  010F               	movlb	15	; () banked
  1938  0035F0  6F22               	movwf	34,b	;volatile
  1939                           
  1940                           ; BSR set to: 15
  1941                           ;inc\CANlib.h: 497: TXB2SIDL = (unsigned char) tamp;
  1942  0035F2  C038  FF22         	movff	CANsendMessage@tamp,3874	;volatile
  1943  0035F6                     l2832:
  1944                           
  1945                           ; BSR set to: 15
  1946                           ;inc\CANlib.h: 498: }
  1947                           ;inc\CANlib.h: 500: if (0b00000001 & flags)
  1948  0035F6  A033               	btfss	CANsendMessage@flags,0,c
  1949  0035F8  D003               	goto	l372
  1950                           
  1951                           ; BSR set to: 15
  1952                           ;inc\CANlib.h: 501: TXB2CONbits.TXPRI0 = 0x01;
  1953  0035FA  010F               	movlb	15	; () banked
  1954  0035FC  8120               	bsf	32,0,b	;volatile
  1955  0035FE  D002               	goto	l373
  1956  003600                     l372:
  1957                           
  1958                           ; BSR set to: 15
  1959                           ;inc\CANlib.h: 502: else
  1960                           ;inc\CANlib.h: 503: TXB2CONbits.TXPRI0 = 0x00;
  1961  003600  010F               	movlb	15	; () banked
  1962  003602  9120               	bcf	32,0,b	;volatile
  1963  003604                     l373:
  1964                           
  1965                           ; BSR set to: 15
  1966                           ;inc\CANlib.h: 504: if (0b00000010 & flags)
  1967  003604  A233               	btfss	CANsendMessage@flags,1,c
  1968  003606  D003               	goto	l374
  1969                           
  1970                           ; BSR set to: 15
  1971                           ;inc\CANlib.h: 505: TXB2CONbits.TXPRI1 = 0x01;
  1972  003608  010F               	movlb	15	; () banked
  1973  00360A  8320               	bsf	32,1,b	;volatile
  1974  00360C  D002               	goto	l2838
  1975  00360E                     l374:
  1976                           
  1977                           ; BSR set to: 15
  1978                           ;inc\CANlib.h: 506: else
  1979                           ;inc\CANlib.h: 507: TXB2CONbits.TXPRI1 = 0x00;
  1980  00360E  010F               	movlb	15	; () banked
  1981  003610  9320               	bcf	32,1,b	;volatile
  1982  003612                     l2838:
  1983                           
  1984                           ; BSR set to: 15
  1985                           ;inc\CANlib.h: 509: TXB2D0 = data[0];
  1986  003612  C030  FFD9         	movff	CANsendMessage@data,fsr2l
  1987  003616  C031  FFDA         	movff	CANsendMessage@data+1,fsr2h
  1988  00361A  50DF               	movf	indf2,w,c
  1989  00361C  010F               	movlb	15	; () banked
  1990  00361E  6F26               	movwf	38,b	;volatile
  1991                           
  1992                           ; BSR set to: 15
  1993                           ;inc\CANlib.h: 510: TXB2D1 = data[1];
  1994  003620  EE20 F001          	lfsr	2,1
  1995  003624  5030               	movf	CANsendMessage@data,w,c
  1996  003626  26D9               	addwf	fsr2l,f,c
  1997  003628  5031               	movf	CANsendMessage@data+1,w,c
  1998  00362A  22DA               	addwfc	fsr2h,f,c
  1999  00362C  50DF               	movf	indf2,w,c
  2000  00362E  010F               	movlb	15	; () banked
  2001  003630  6F27               	movwf	39,b	;volatile
  2002                           
  2003                           ; BSR set to: 15
  2004                           ;inc\CANlib.h: 511: TXB2D2 = data[2];
  2005  003632  EE20 F002          	lfsr	2,2
  2006  003636  5030               	movf	CANsendMessage@data,w,c
  2007  003638  26D9               	addwf	fsr2l,f,c
  2008  00363A  5031               	movf	CANsendMessage@data+1,w,c
  2009  00363C  22DA               	addwfc	fsr2h,f,c
  2010  00363E  50DF               	movf	indf2,w,c
  2011  003640  010F               	movlb	15	; () banked
  2012  003642  6F28               	movwf	40,b	;volatile
  2013                           
  2014                           ; BSR set to: 15
  2015                           ;inc\CANlib.h: 512: TXB2D3 = data[3];
  2016  003644  EE20 F003          	lfsr	2,3
  2017  003648  5030               	movf	CANsendMessage@data,w,c
  2018  00364A  26D9               	addwf	fsr2l,f,c
  2019  00364C  5031               	movf	CANsendMessage@data+1,w,c
  2020  00364E  22DA               	addwfc	fsr2h,f,c
  2021  003650  50DF               	movf	indf2,w,c
  2022  003652  010F               	movlb	15	; () banked
  2023  003654  6F29               	movwf	41,b	;volatile
  2024                           
  2025                           ; BSR set to: 15
  2026                           ;inc\CANlib.h: 513: TXB2D4 = data[4];
  2027  003656  EE20 F004          	lfsr	2,4
  2028  00365A  5030               	movf	CANsendMessage@data,w,c
  2029  00365C  26D9               	addwf	fsr2l,f,c
  2030  00365E  5031               	movf	CANsendMessage@data+1,w,c
  2031  003660  22DA               	addwfc	fsr2h,f,c
  2032  003662  50DF               	movf	indf2,w,c
  2033  003664  010F               	movlb	15	; () banked
  2034  003666  6F2A               	movwf	42,b	;volatile
  2035                           
  2036                           ; BSR set to: 15
  2037                           ;inc\CANlib.h: 514: TXB2D5 = data[5];
  2038  003668  EE20 F005          	lfsr	2,5
  2039  00366C  5030               	movf	CANsendMessage@data,w,c
  2040  00366E  26D9               	addwf	fsr2l,f,c
  2041  003670  5031               	movf	CANsendMessage@data+1,w,c
  2042  003672  22DA               	addwfc	fsr2h,f,c
  2043  003674  50DF               	movf	indf2,w,c
  2044  003676  010F               	movlb	15	; () banked
  2045  003678  6F2B               	movwf	43,b	;volatile
  2046                           
  2047                           ; BSR set to: 15
  2048                           ;inc\CANlib.h: 515: TXB2D6 = data[6];
  2049  00367A  EE20 F006          	lfsr	2,6
  2050  00367E  5030               	movf	CANsendMessage@data,w,c
  2051  003680  26D9               	addwf	fsr2l,f,c
  2052  003682  5031               	movf	CANsendMessage@data+1,w,c
  2053  003684  22DA               	addwfc	fsr2h,f,c
  2054  003686  50DF               	movf	indf2,w,c
  2055  003688  010F               	movlb	15	; () banked
  2056  00368A  6F2C               	movwf	44,b	;volatile
  2057                           
  2058                           ; BSR set to: 15
  2059                           ;inc\CANlib.h: 516: TXB2D7 = data[7];
  2060  00368C  EE20 F007          	lfsr	2,7
  2061  003690  5030               	movf	CANsendMessage@data,w,c
  2062  003692  26D9               	addwf	fsr2l,f,c
  2063  003694  5031               	movf	CANsendMessage@data+1,w,c
  2064  003696  22DA               	addwfc	fsr2h,f,c
  2065  003698  50DF               	movf	indf2,w,c
  2066  00369A  010F               	movlb	15	; () banked
  2067  00369C  6F2D               	movwf	45,b	;volatile
  2068                           
  2069                           ; BSR set to: 15
  2070                           ;inc\CANlib.h: 518: TXB2CONbits.TXREQ = 0x01;
  2071  00369E  010F               	movlb	15	; () banked
  2072  0036A0  8720               	bsf	32,3,b	;volatile
  2073                           
  2074                           ; BSR set to: 15
  2075                           ;inc\CANlib.h: 520: return;
  2076  0036A2  0012               	return	
  2077  0036A4                     __end_of_CANsendMessage:
  2078                           	opt stack 0
  2079                           tblptru	equ	0xFF8
  2080                           postinc0	equ	0xFEE
  2081                           wreg	equ	0xFE8
  2082                           indf2	equ	0xFDF
  2083                           fsr2h	equ	0xFDA
  2084                           fsr2l	equ	0xFD9
  2085                           status	equ	0xFD8
  2086                           
  2087 ;; *************** function _CANisTxReady *****************
  2088 ;; Defined at:
  2089 ;;		line 1154 in file "../../../LaurTec_PIC_libraries_v_3.3.0/inc\CANlib.h"
  2090 ;; Parameters:    Size  Location     Type
  2091 ;;		None
  2092 ;; Auto vars:     Size  Location     Type
  2093 ;;		None
  2094 ;; Return value:  Size  Location     Type
  2095 ;;                  1    wreg      unsigned char 
  2096 ;; Registers used:
  2097 ;;		wreg, status,2
  2098 ;; Tracked objects:
  2099 ;;		On entry : 0/0
  2100 ;;		On exit  : 0/0
  2101 ;;		Unchanged: 0/0
  2102 ;; Data sizes:     COMRAM   BANK0   BANK1   BANK2
  2103 ;;      Params:         0       0       0       0
  2104 ;;      Locals:         1       0       0       0
  2105 ;;      Temps:          0       0       0       0
  2106 ;;      Totals:         1       0       0       0
  2107 ;;Total ram usage:        1 bytes
  2108 ;; Hardware stack levels used:    1
  2109 ;; This function calls:
  2110 ;;		Nothing
  2111 ;; This function is called by:
  2112 ;;		_send_data
  2113 ;; This function uses a non-reentrant model
  2114 ;;
  2115                           
  2116                           	psect	text4
  2117  002962                     __ptext4:
  2118                           	opt stack 0
  2119  002962                     _CANisTxReady:
  2120                           	opt stack 29
  2121                           
  2122                           ;inc\CANlib.h: 1156: return (!TXB0CONbits.TXREQ || !TXB1CONbits.TXREQ || !TXB2CONbits.TX
      +                          REQ);
  2123                           
  2124                           ; BSR set to: 15
  2125                           ;incstack = 0
  2126  002962  0E01               	movlw	1
  2127  002964  6E2C               	movwf	_CANisTxReady$2592,c
  2128  002966  010F               	movlb	15	; () banked
  2129  002968  A740               	btfss	64,3,b	;volatile
  2130  00296A  D008               	goto	l526
  2131                           
  2132                           ; BSR set to: 15
  2133  00296C  010F               	movlb	15	; () banked
  2134  00296E  A730               	btfss	48,3,b	;volatile
  2135  002970  D005               	goto	l526
  2136                           
  2137                           ; BSR set to: 15
  2138  002972  010F               	movlb	15	; () banked
  2139  002974  A720               	btfss	32,3,b	;volatile
  2140  002976  D002               	goto	l526
  2141                           
  2142                           ; BSR set to: 15
  2143  002978  0E00               	movlw	0
  2144  00297A  6E2C               	movwf	_CANisTxReady$2592,c
  2145  00297C                     l526:
  2146                           
  2147                           ; BSR set to: 15
  2148  00297C  502C               	movf	_CANisTxReady$2592,w,c
  2149  00297E  0012               	return	
  2150  002980                     __end_of_CANisTxReady:
  2151                           	opt stack 0
  2152                           tblptru	equ	0xFF8
  2153                           postinc0	equ	0xFEE
  2154                           wreg	equ	0xFE8
  2155                           indf2	equ	0xFDF
  2156                           fsr2h	equ	0xFDA
  2157                           fsr2l	equ	0xFD9
  2158                           status	equ	0xFD8
  2159                           
  2160 ;; *************** function _configurazione_iniziale *****************
  2161 ;; Defined at:
  2162 ;;		line 139 in file "tester.c"
  2163 ;; Parameters:    Size  Location     Type
  2164 ;;		None
  2165 ;; Auto vars:     Size  Location     Type
  2166 ;;		None
  2167 ;; Return value:  Size  Location     Type
  2168 ;;		None               void
  2169 ;; Registers used:
  2170 ;;		wreg, status,2, status,0, cstack
  2171 ;; Tracked objects:
  2172 ;;		On entry : 0/0
  2173 ;;		On exit  : 0/0
  2174 ;;		Unchanged: 0/0
  2175 ;; Data sizes:     COMRAM   BANK0   BANK1   BANK2
  2176 ;;      Params:         0       0       0       0
  2177 ;;      Locals:         0       0       0       0
  2178 ;;      Temps:          0       0       0       0
  2179 ;;      Totals:         0       0       0       0
  2180 ;;Total ram usage:        0 bytes
  2181 ;; Hardware stack levels used:    1
  2182 ;; Hardware stack levels required when called:    2
  2183 ;; This function calls:
  2184 ;;		_CANInitialize
  2185 ;; This function is called by:
  2186 ;;		_main
  2187 ;; This function uses a non-reentrant model
  2188 ;;
  2189                           
  2190                           	psect	text5
  2191  0029C0                     __ptext5:
  2192                           	opt stack 0
  2193  0029C0                     _configurazione_iniziale:
  2194                           	opt stack 28
  2195                           
  2196                           ;tester.c: 142: CANInitialize(4, 6, 5, 1, 3, CAN_CONFIG_LINE_FILTER_OFF & CAN_CONFIG_SAM
      +                          PLE_ONCE & CAN_CONFIG_ALL_VALID_MSG & CAN_CONFIG_DBL_BUFFER_ON);
  2197                           
  2198                           ; BSR set to: 15
  2199                           ;incstack = 0
  2200  0029C0  0E06               	movlw	6
  2201  0029C2  6E3A               	movwf	CANInitialize@phaseSeg1,c
  2202  0029C4  0E05               	movlw	5
  2203  0029C6  6E3B               	movwf	CANInitialize@phaseSeg2,c
  2204  0029C8  0E01               	movlw	1
  2205  0029CA  6E3C               	movwf	CANInitialize@SJW,c
  2206  0029CC  0E03               	movlw	3
  2207  0029CE  6E3D               	movwf	CANInitialize@BRP,c
  2208  0029D0  0E9D               	movlw	157
  2209  0029D2  6E3E               	movwf	CANInitialize@flags,c
  2210  0029D4  0E04               	movlw	4
  2211  0029D6  ECC7  F015         	call	_CANInitialize
  2212                           
  2213                           ;tester.c: 143: RCONbits.IPEN = 1;
  2214  0029DA  8ED0               	bsf	4048,7,c	;volatile
  2215                           
  2216                           ;tester.c: 144: INTCONbits.INT0IF = 0;
  2217  0029DC  92F2               	bcf	intcon,1,c	;volatile
  2218                           
  2219                           ;tester.c: 145: INTCONbits.INT0IE = 0;
  2220  0029DE  98F2               	bcf	intcon,4,c	;volatile
  2221                           
  2222                           ;tester.c: 146: PIR3bits.RXB1IF = 0;
  2223  0029E0  92A4               	bcf	4004,1,c	;volatile
  2224                           
  2225                           ;tester.c: 147: PIR3bits.RXB0IF = 0;
  2226  0029E2  90A4               	bcf	4004,0,c	;volatile
  2227                           
  2228                           ;tester.c: 148: PIE3bits.RXB1IE = 1;
  2229  0029E4  82A3               	bsf	4003,1,c	;volatile
  2230                           
  2231                           ;tester.c: 149: PIE3bits.RXB0IE = 1;
  2232  0029E6  80A3               	bsf	4003,0,c	;volatile
  2233                           
  2234                           ;tester.c: 150: IPR3bits.RXB1IP = 0;
  2235  0029E8  92A5               	bcf	4005,1,c	;volatile
  2236                           
  2237                           ;tester.c: 151: IPR3bits.RXB0IP = 0;
  2238  0029EA  90A5               	bcf	4005,0,c	;volatile
  2239                           
  2240                           ;tester.c: 152: INTCONbits.GIEH = 1;
  2241  0029EC  8EF2               	bsf	intcon,7,c	;volatile
  2242                           
  2243                           ;tester.c: 153: INTCONbits.GIEL = 1;
  2244  0029EE  8CF2               	bsf	intcon,6,c	;volatile
  2245                           
  2246                           ;tester.c: 154: INTCON2bits.INTEDG0 = 1;
  2247  0029F0  8CF1               	bsf	intcon2,6,c	;volatile
  2248                           
  2249                           ;tester.c: 157: LATA = 0x00;
  2250  0029F2  0E00               	movlw	0
  2251  0029F4  6E89               	movwf	3977,c	;volatile
  2252                           
  2253                           ;tester.c: 158: TRISA = 0b11111110;
  2254  0029F6  0EFE               	movlw	254
  2255  0029F8  6E92               	movwf	3986,c	;volatile
  2256                           
  2257                           ;tester.c: 160: LATB = 0x00;
  2258  0029FA  0E00               	movlw	0
  2259  0029FC  6E8A               	movwf	3978,c	;volatile
  2260                           
  2261                           ;tester.c: 161: TRISB = 0b11111011;
  2262  0029FE  0EFB               	movlw	251
  2263  002A00  6E93               	movwf	3987,c	;volatile
  2264                           
  2265                           ;tester.c: 163: LATC = 0x00;
  2266  002A02  0E00               	movlw	0
  2267  002A04  6E8B               	movwf	3979,c	;volatile
  2268                           
  2269                           ;tester.c: 164: TRISC = 0x00;
  2270  002A06  0E00               	movlw	0
  2271  002A08  6E94               	movwf	3988,c	;volatile
  2272                           
  2273                           ;tester.c: 166: LATD = 0x00;
  2274  002A0A  0E00               	movlw	0
  2275  002A0C  6E8C               	movwf	3980,c	;volatile
  2276                           
  2277                           ;tester.c: 167: TRISD = 0b00001111;
  2278  002A0E  0E0F               	movlw	15
  2279  002A10  6E95               	movwf	3989,c	;volatile
  2280                           
  2281                           ;tester.c: 169: LATE = 0x00;
  2282  002A12  0E00               	movlw	0
  2283  002A14  6E8D               	movwf	3981,c	;volatile
  2284                           
  2285                           ;tester.c: 170: TRISE = 0x00;
  2286  002A16  0E00               	movlw	0
  2287  002A18  6E96               	movwf	3990,c	;volatile
  2288  002A1A  0012               	return		;funcret
  2289  002A1C                     __end_of_configurazione_iniziale:
  2290                           	opt stack 0
  2291                           tblptru	equ	0xFF8
  2292                           intcon	equ	0xFF2
  2293                           intcon2	equ	0xFF1
  2294                           postinc0	equ	0xFEE
  2295                           wreg	equ	0xFE8
  2296                           indf2	equ	0xFDF
  2297                           fsr2h	equ	0xFDA
  2298                           fsr2l	equ	0xFD9
  2299                           status	equ	0xFD8
  2300                           
  2301 ;; *************** function _CANInitialize *****************
  2302 ;; Defined at:
  2303 ;;		line 218 in file "../../../LaurTec_PIC_libraries_v_3.3.0/inc\CANlib.h"
  2304 ;; Parameters:    Size  Location     Type
  2305 ;;  propSeg         1    wreg     unsigned char 
  2306 ;;  phaseSeg1       1   14[COMRAM] unsigned char 
  2307 ;;  phaseSeg2       1   15[COMRAM] unsigned char 
  2308 ;;  SJW             1   16[COMRAM] unsigned char 
  2309 ;;  BRP             1   17[COMRAM] unsigned char 
  2310 ;;  flags           1   18[COMRAM] enum E16844
  2311 ;; Auto vars:     Size  Location     Type
  2312 ;;  propSeg         1   23[COMRAM] unsigned char 
  2313 ;;  FilterConfig    1   25[COMRAM] unsigned char 
  2314 ;;  FilterConfig    1   24[COMRAM] unsigned char 
  2315 ;; Return value:  Size  Location     Type
  2316 ;;		None               void
  2317 ;; Registers used:
  2318 ;;		wreg, status,2, status,0, cstack
  2319 ;; Tracked objects:
  2320 ;;		On entry : 0/0
  2321 ;;		On exit  : 0/0
  2322 ;;		Unchanged: 0/0
  2323 ;; Data sizes:     COMRAM   BANK0   BANK1   BANK2
  2324 ;;      Params:         5       0       0       0
  2325 ;;      Locals:         3       0       0       0
  2326 ;;      Temps:          4       0       0       0
  2327 ;;      Totals:        12       0       0       0
  2328 ;;Total ram usage:       12 bytes
  2329 ;; Hardware stack levels used:    1
  2330 ;; Hardware stack levels required when called:    1
  2331 ;; This function calls:
  2332 ;;		_CANOperationMode
  2333 ;;		_CANSetFilter
  2334 ;;		_CANSetMask
  2335 ;; This function is called by:
  2336 ;;		_configurazione_iniziale
  2337 ;; This function uses a non-reentrant model
  2338 ;;
  2339                           
  2340                           	psect	text6
  2341  002B8E                     __ptext6:
  2342                           	opt stack 0
  2343  002B8E                     _CANInitialize:
  2344                           	opt stack 28
  2345                           
  2346                           ;incstack = 0
  2347                           ;CANInitialize@propSeg stored from wreg
  2348  002B8E  6E43               	movwf	CANInitialize@propSeg,c
  2349                           
  2350                           ;inc\CANlib.h: 220: BYTE FilterConfig1;
  2351                           ;inc\CANlib.h: 221: BYTE FilterConfig2;
  2352                           ;inc\CANlib.h: 223: CANOperationMode(CAN_OP_MODE_CONFIG);
  2353  002B90  0E80               	movlw	128
  2354  002B92  EC9C  F014         	call	_CANOperationMode
  2355                           
  2356                           ;inc\CANlib.h: 225: BRGCON1 = 0x00;
  2357  002B96  0E00               	movlw	0
  2358  002B98  6E70               	movwf	3952,c	;volatile
  2359                           
  2360                           ;inc\CANlib.h: 226: BRGCON2 = 0x00;
  2361  002B9A  0E00               	movlw	0
  2362  002B9C  6E71               	movwf	3953,c	;volatile
  2363                           
  2364                           ;inc\CANlib.h: 227: BRGCON3 = 0x00;
  2365  002B9E  0E00               	movlw	0
  2366  002BA0  6E72               	movwf	3954,c	;volatile
  2367                           
  2368                           ;inc\CANlib.h: 229: SJW= SJW << 6;
  2369  002BA2  403C               	rrncf	CANInitialize@SJW,w,c
  2370  002BA4  42E8               	rrncf	wreg,f,c
  2371  002BA6  0BC0               	andlw	192
  2372  002BA8  6E3C               	movwf	CANInitialize@SJW,c
  2373                           
  2374                           ;inc\CANlib.h: 230: BRGCON1 |= SJW;
  2375  002BAA  503C               	movf	CANInitialize@SJW,w,c
  2376  002BAC  1270               	iorwf	3952,f,c	;volatile
  2377                           
  2378                           ;inc\CANlib.h: 231: BRGCON1 |= BRP;
  2379  002BAE  503D               	movf	CANInitialize@BRP,w,c
  2380  002BB0  1270               	iorwf	3952,f,c	;volatile
  2381                           
  2382                           ;inc\CANlib.h: 233: BRGCON2 |= propSeg;
  2383  002BB2  5043               	movf	CANInitialize@propSeg,w,c
  2384  002BB4  1271               	iorwf	3953,f,c	;volatile
  2385                           
  2386                           ;inc\CANlib.h: 234: phaseSeg1 = phaseSeg1 <<3;
  2387  002BB6  383A               	swapf	CANInitialize@phaseSeg1,w,c
  2388  002BB8  42E8               	rrncf	wreg,f,c
  2389  002BBA  0BF8               	andlw	248
  2390  002BBC  6E3A               	movwf	CANInitialize@phaseSeg1,c
  2391                           
  2392                           ;inc\CANlib.h: 235: BRGCON2 |= phaseSeg1;
  2393  002BBE  503A               	movf	CANInitialize@phaseSeg1,w,c
  2394  002BC0  1271               	iorwf	3953,f,c	;volatile
  2395                           
  2396                           ;inc\CANlib.h: 237: if ( !(flags & CAN_CONFIG_SAMPLE_BIT) )
  2397  002BC2  A43E               	btfss	CANInitialize@flags,2,c
  2398                           
  2399                           ;inc\CANlib.h: 238: BRGCON2bits.SAM= 1;
  2400  002BC4  8C71               	bsf	3953,6,c	;volatile
  2401                           
  2402                           ;inc\CANlib.h: 240: if ( flags & CAN_CONFIG_PHSEG2_PRG_BIT )
  2403  002BC6  B03E               	btfsc	CANInitialize@flags,0,c
  2404                           
  2405                           ;inc\CANlib.h: 241: BRGCON2bits.SEG2PHTS = 1;
  2406  002BC8  8E71               	bsf	3953,7,c	;volatile
  2407                           
  2408                           ;inc\CANlib.h: 243: BRGCON3 |= phaseSeg2;
  2409  002BCA  503B               	movf	CANInitialize@phaseSeg2,w,c
  2410  002BCC  1272               	iorwf	3954,f,c	;volatile
  2411                           
  2412                           ;inc\CANlib.h: 245: if ( flags & CAN_CONFIG_LINE_FILTER_BIT )
  2413  002BCE  B23E               	btfsc	CANInitialize@flags,1,c
  2414                           
  2415                           ;inc\CANlib.h: 246: BRGCON3bits.WAKFIL = 1;
  2416  002BD0  8C72               	bsf	3954,6,c	;volatile
  2417                           
  2418                           ;inc\CANlib.h: 251: RXB0CON = flags & CAN_CONFIG_MSG_BITS;
  2419  002BD2  503E               	movf	CANInitialize@flags,w,c
  2420  002BD4  0B60               	andlw	96
  2421  002BD6  6E60               	movwf	3936,c	;volatile
  2422                           
  2423                           ;inc\CANlib.h: 252: if ( (flags & CAN_CONFIG_DBL_BUFFER_BIT)== CAN_CONFIG_DBL_BUFFER_ON 
      +                          )
  2424  002BD8  503E               	movf	CANInitialize@flags,w,c
  2425  002BDA  0B10               	andlw	16
  2426  002BDC  0AFF               	xorlw	255
  2427  002BDE  B4D8               	btfsc	status,2,c
  2428                           
  2429                           ;inc\CANlib.h: 253: RXB0CONbits.RXB0DBEN = 1;
  2430  002BE0  8460               	bsf	3936,2,c	;volatile
  2431                           
  2432                           ;inc\CANlib.h: 255: RXB1CON = RXB0CON;
  2433  002BE2  CF60 FF50          	movff	3936,3920	;volatile
  2434                           
  2435                           ;inc\CANlib.h: 259: CANSetMask (CAN_MASK_B1, 0x00000000, CAN_CONFIG_XTD_MSG);
  2436  002BE6  0E00               	movlw	0
  2437  002BE8  6E2C               	movwf	CANSetMask@mask,c
  2438  002BEA  0E00               	movlw	0
  2439  002BEC  6E2D               	movwf	CANSetMask@mask+1,c
  2440  002BEE  0E00               	movlw	0
  2441  002BF0  6E2E               	movwf	CANSetMask@mask+2,c
  2442  002BF2  0E00               	movlw	0
  2443  002BF4  6E2F               	movwf	CANSetMask@mask+3,c
  2444  002BF6  0EF7               	movlw	247
  2445  002BF8  6E30               	movwf	CANSetMask@type,c
  2446  002BFA  0E01               	movlw	1
  2447  002BFC  EC82  F016         	call	_CANSetMask
  2448                           
  2449                           ;inc\CANlib.h: 260: CANSetMask (CAN_MASK_B2, 0x00000000, CAN_CONFIG_XTD_MSG);
  2450  002C00  0E00               	movlw	0
  2451  002C02  6E2C               	movwf	CANSetMask@mask,c
  2452  002C04  0E00               	movlw	0
  2453  002C06  6E2D               	movwf	CANSetMask@mask+1,c
  2454  002C08  0E00               	movlw	0
  2455  002C0A  6E2E               	movwf	CANSetMask@mask+2,c
  2456  002C0C  0E00               	movlw	0
  2457  002C0E  6E2F               	movwf	CANSetMask@mask+3,c
  2458  002C10  0EF7               	movlw	247
  2459  002C12  6E30               	movwf	CANSetMask@type,c
  2460  002C14  0E02               	movlw	2
  2461  002C16  EC82  F016         	call	_CANSetMask
  2462                           
  2463                           ;inc\CANlib.h: 263: switch( (flags & CAN_CONFIG_MSG_BITS) | ~CAN_CONFIG_MSG_BITS )
  2464  002C1A  D00A               	goto	l2620
  2465  002C1C                     l2614:
  2466                           
  2467                           ;inc\CANlib.h: 266: FilterConfig1 = CAN_CONFIG_XTD_MSG;
  2468  002C1C  0EF7               	movlw	247
  2469  002C1E  6E44               	movwf	CANInitialize@FilterConfig1,c
  2470  002C20  D004               	goto	l2616
  2471  002C22                     l328:
  2472                           
  2473                           ;inc\CANlib.h: 271: FilterConfig1 = CAN_CONFIG_STD_MSG;
  2474  002C22  6844               	setf	CANInitialize@FilterConfig1,c
  2475                           
  2476                           ;inc\CANlib.h: 272: FilterConfig2 = CAN_CONFIG_STD_MSG;
  2477  002C24  6845               	setf	CANInitialize@FilterConfig2,c
  2478                           
  2479                           ;inc\CANlib.h: 273: break;
  2480  002C26  D01C               	goto	l2622
  2481  002C28                     l329:
  2482                           
  2483                           ;inc\CANlib.h: 275: FilterConfig1 = CAN_CONFIG_STD_MSG;
  2484  002C28  6844               	setf	CANInitialize@FilterConfig1,c
  2485  002C2A                     l2616:
  2486                           
  2487                           ;inc\CANlib.h: 276: FilterConfig2 = CAN_CONFIG_XTD_MSG;
  2488  002C2A  0EF7               	movlw	247
  2489  002C2C  6E45               	movwf	CANInitialize@FilterConfig2,c
  2490                           
  2491                           ;inc\CANlib.h: 278: }
  2492                           
  2493                           ;inc\CANlib.h: 277: break;
  2494  002C2E  D018               	goto	l2622
  2495  002C30                     l2620:
  2496  002C30  0E9F               	movlw	159
  2497  002C32  6E3F               	movwf	??_CANInitialize& (0+255),c
  2498  002C34  0EFF               	movlw	255
  2499  002C36  6E40               	movwf	(??_CANInitialize+1)& (0+255),c
  2500  002C38  503E               	movf	CANInitialize@flags,w,c
  2501  002C3A  0B60               	andlw	96
  2502  002C3C  6E41               	movwf	(??_CANInitialize+2)& (0+255),c
  2503  002C3E  6A42               	clrf	(??_CANInitialize+3)& (0+255),c
  2504  002C40  503F               	movf	??_CANInitialize,w,c
  2505  002C42  1241               	iorwf	??_CANInitialize+2,f,c
  2506  002C44  5040               	movf	??_CANInitialize+1,w,c
  2507  002C46  1242               	iorwf	??_CANInitialize+3,f,c
  2508                           
  2509                           ; Switch on 2 bytes has been partitioned into a top level switch of size 1, and 1 sub-sw
      +                          itches
  2510                           ; Switch size 1, requested type "space"
  2511                           ; Number of cases is 1, Range of values is 0 to 0
  2512                           ; switch strategies available:
  2513                           ; Name         Instructions Cycles
  2514                           ; simple_byte            4     3 (average)
  2515                           ;	Chosen strategy is simple_byte
  2516  002C48  5042               	movf	??_CANInitialize+3,w,c
  2517  002C4A  0A00               	xorlw	0	; case 0
  2518  002C4C  A4D8               	btfss	status,2,c
  2519  002C4E  D7EC               	goto	l329
  2520                           
  2521                           ; Switch size 1, requested type "space"
  2522                           ; Number of cases is 2, Range of values is 191 to 223
  2523                           ; switch strategies available:
  2524                           ; Name         Instructions Cycles
  2525                           ; simple_byte            7     4 (average)
  2526                           ;	Chosen strategy is simple_byte
  2527  002C50  5041               	movf	??_CANInitialize+2,w,c
  2528  002C52  0ABF               	xorlw	191	; case 191
  2529  002C54  B4D8               	btfsc	status,2,c
  2530  002C56  D7E5               	goto	l328
  2531  002C58  0A60               	xorlw	96	; case 223
  2532  002C5A  B4D8               	btfsc	status,2,c
  2533  002C5C  D7DF               	goto	l2614
  2534  002C5E  D7E4               	goto	l329
  2535  002C60                     l2622:
  2536                           
  2537                           ;inc\CANlib.h: 280: CANSetFilter(CAN_FILTER_B1_F1, 0, FilterConfig1);
  2538  002C60  0E00               	movlw	0
  2539  002C62  6E2C               	movwf	CANSetFilter@filter,c
  2540  002C64  0E00               	movlw	0
  2541  002C66  6E2D               	movwf	CANSetFilter@filter+1,c
  2542  002C68  0E00               	movlw	0
  2543  002C6A  6E2E               	movwf	CANSetFilter@filter+2,c
  2544  002C6C  0E00               	movlw	0
  2545  002C6E  6E2F               	movwf	CANSetFilter@filter+3,c
  2546  002C70  C044  F030         	movff	CANInitialize@FilterConfig1,CANSetFilter@type
  2547  002C74  0E00               	movlw	0
  2548  002C76  EC52  F01B         	call	_CANSetFilter
  2549                           
  2550                           ;inc\CANlib.h: 281: CANSetFilter(CAN_FILTER_B1_F2, 0, FilterConfig1);
  2551  002C7A  0E00               	movlw	0
  2552  002C7C  6E2C               	movwf	CANSetFilter@filter,c
  2553  002C7E  0E00               	movlw	0
  2554  002C80  6E2D               	movwf	CANSetFilter@filter+1,c
  2555  002C82  0E00               	movlw	0
  2556  002C84  6E2E               	movwf	CANSetFilter@filter+2,c
  2557  002C86  0E00               	movlw	0
  2558  002C88  6E2F               	movwf	CANSetFilter@filter+3,c
  2559  002C8A  C044  F030         	movff	CANInitialize@FilterConfig1,CANSetFilter@type
  2560  002C8E  0E01               	movlw	1
  2561  002C90  EC52  F01B         	call	_CANSetFilter
  2562                           
  2563                           ;inc\CANlib.h: 282: CANSetFilter(CAN_FILTER_B2_F1, 0, FilterConfig2);
  2564  002C94  0E00               	movlw	0
  2565  002C96  6E2C               	movwf	CANSetFilter@filter,c
  2566  002C98  0E00               	movlw	0
  2567  002C9A  6E2D               	movwf	CANSetFilter@filter+1,c
  2568  002C9C  0E00               	movlw	0
  2569  002C9E  6E2E               	movwf	CANSetFilter@filter+2,c
  2570  002CA0  0E00               	movlw	0
  2571  002CA2  6E2F               	movwf	CANSetFilter@filter+3,c
  2572  002CA4  C045  F030         	movff	CANInitialize@FilterConfig2,CANSetFilter@type
  2573  002CA8  0E02               	movlw	2
  2574  002CAA  EC52  F01B         	call	_CANSetFilter
  2575                           
  2576                           ;inc\CANlib.h: 283: CANSetFilter(CAN_FILTER_B2_F2, 0, FilterConfig2);
  2577  002CAE  0E00               	movlw	0
  2578  002CB0  6E2C               	movwf	CANSetFilter@filter,c
  2579  002CB2  0E00               	movlw	0
  2580  002CB4  6E2D               	movwf	CANSetFilter@filter+1,c
  2581  002CB6  0E00               	movlw	0
  2582  002CB8  6E2E               	movwf	CANSetFilter@filter+2,c
  2583  002CBA  0E00               	movlw	0
  2584  002CBC  6E2F               	movwf	CANSetFilter@filter+3,c
  2585  002CBE  C045  F030         	movff	CANInitialize@FilterConfig2,CANSetFilter@type
  2586  002CC2  0E03               	movlw	3
  2587  002CC4  EC52  F01B         	call	_CANSetFilter
  2588                           
  2589                           ;inc\CANlib.h: 284: CANSetFilter(CAN_FILTER_B2_F3, 0, FilterConfig2);
  2590  002CC8  0E00               	movlw	0
  2591  002CCA  6E2C               	movwf	CANSetFilter@filter,c
  2592  002CCC  0E00               	movlw	0
  2593  002CCE  6E2D               	movwf	CANSetFilter@filter+1,c
  2594  002CD0  0E00               	movlw	0
  2595  002CD2  6E2E               	movwf	CANSetFilter@filter+2,c
  2596  002CD4  0E00               	movlw	0
  2597  002CD6  6E2F               	movwf	CANSetFilter@filter+3,c
  2598  002CD8  C045  F030         	movff	CANInitialize@FilterConfig2,CANSetFilter@type
  2599  002CDC  0E04               	movlw	4
  2600  002CDE  EC52  F01B         	call	_CANSetFilter
  2601                           
  2602                           ;inc\CANlib.h: 285: CANSetFilter(CAN_FILTER_B2_F4, 0, FilterConfig2);
  2603  002CE2  0E00               	movlw	0
  2604  002CE4  6E2C               	movwf	CANSetFilter@filter,c
  2605  002CE6  0E00               	movlw	0
  2606  002CE8  6E2D               	movwf	CANSetFilter@filter+1,c
  2607  002CEA  0E00               	movlw	0
  2608  002CEC  6E2E               	movwf	CANSetFilter@filter+2,c
  2609  002CEE  0E00               	movlw	0
  2610  002CF0  6E2F               	movwf	CANSetFilter@filter+3,c
  2611  002CF2  C045  F030         	movff	CANInitialize@FilterConfig2,CANSetFilter@type
  2612  002CF6  0E05               	movlw	5
  2613  002CF8  EC52  F01B         	call	_CANSetFilter
  2614                           
  2615                           ;inc\CANlib.h: 287: CANOperationMode(CAN_OP_MODE_NORMAL);
  2616  002CFC  0E00               	movlw	0
  2617  002CFE  EC9C  F014         	call	_CANOperationMode
  2618  002D02  0012               	return		;funcret
  2619  002D04                     __end_of_CANInitialize:
  2620                           	opt stack 0
  2621                           tblptru	equ	0xFF8
  2622                           intcon	equ	0xFF2
  2623                           intcon2	equ	0xFF1
  2624                           postinc0	equ	0xFEE
  2625                           wreg	equ	0xFE8
  2626                           indf2	equ	0xFDF
  2627                           fsr2h	equ	0xFDA
  2628                           fsr2l	equ	0xFD9
  2629                           status	equ	0xFD8
  2630                           
  2631 ;; *************** function _CANSetMask *****************
  2632 ;; Defined at:
  2633 ;;		line 640 in file "../../../LaurTec_PIC_libraries_v_3.3.0/inc\CANlib.h"
  2634 ;; Parameters:    Size  Location     Type
  2635 ;;  numBuffer       1    wreg     enum E16878
  2636 ;;  mask            4    0[COMRAM] unsigned long 
  2637 ;;  type            1    4[COMRAM] enum E16844
  2638 ;; Auto vars:     Size  Location     Type
  2639 ;;  numBuffer       1    9[COMRAM] enum E16878
  2640 ;;  tamp            4   10[COMRAM] unsigned long 
  2641 ;; Return value:  Size  Location     Type
  2642 ;;		None               void
  2643 ;; Registers used:
  2644 ;;		wreg, status,2, status,0
  2645 ;; Tracked objects:
  2646 ;;		On entry : 0/0
  2647 ;;		On exit  : 0/0
  2648 ;;		Unchanged: 0/0
  2649 ;; Data sizes:     COMRAM   BANK0   BANK1   BANK2
  2650 ;;      Params:         5       0       0       0
  2651 ;;      Locals:         5       0       0       0
  2652 ;;      Temps:          4       0       0       0
  2653 ;;      Totals:        14       0       0       0
  2654 ;;Total ram usage:       14 bytes
  2655 ;; Hardware stack levels used:    1
  2656 ;; This function calls:
  2657 ;;		Nothing
  2658 ;; This function is called by:
  2659 ;;		_CANInitialize
  2660 ;; This function uses a non-reentrant model
  2661 ;;
  2662                           
  2663                           	psect	text7
  2664  002D04                     __ptext7:
  2665                           	opt stack 0
  2666  002D04                     _CANSetMask:
  2667                           	opt stack 28
  2668                           
  2669                           ;incstack = 0
  2670                           ;CANSetMask@numBuffer stored from wreg
  2671  002D04  6E35               	movwf	CANSetMask@numBuffer,c
  2672                           
  2673                           ;inc\CANlib.h: 643: if ((numBuffer ==CAN_MASK_B1) && (type == CAN_CONFIG_STD_MSG))
  2674  002D06  0435               	decf	CANSetMask@numBuffer,w,c
  2675  002D08  A4D8               	btfss	status,2,c
  2676  002D0A  D049               	goto	l2184
  2677  002D0C  2830               	incf	CANSetMask@type,w,c
  2678  002D0E  A4D8               	btfss	status,2,c
  2679  002D10  D046               	goto	l2184
  2680                           
  2681                           ;inc\CANlib.h: 644: {
  2682                           ;inc\CANlib.h: 645: tamp = (mask >> 3);
  2683  002D12  C02C  F031         	movff	CANSetMask@mask,??_CANSetMask
  2684  002D16  C02D  F032         	movff	CANSetMask@mask+1,??_CANSetMask+1
  2685  002D1A  C02E  F033         	movff	CANSetMask@mask+2,??_CANSetMask+2
  2686  002D1E  C02F  F034         	movff	CANSetMask@mask+3,??_CANSetMask+3
  2687  002D22  0E04               	movlw	4
  2688  002D24  D005               	goto	u1630
  2689  002D26                     u1635:
  2690  002D26  90D8               	bcf	status,0,c
  2691  002D28  3234               	rrcf	??_CANSetMask+3,f,c
  2692  002D2A  3233               	rrcf	??_CANSetMask+2,f,c
  2693  002D2C  3232               	rrcf	??_CANSetMask+1,f,c
  2694  002D2E  3231               	rrcf	??_CANSetMask,f,c
  2695  002D30                     u1630:
  2696  002D30  2EE8               	decfsz	wreg,f,c
  2697  002D32  D7F9               	goto	u1635
  2698  002D34  C031  F036         	movff	??_CANSetMask,CANSetMask@tamp
  2699  002D38  C032  F037         	movff	??_CANSetMask+1,CANSetMask@tamp+1
  2700  002D3C  C033  F038         	movff	??_CANSetMask+2,CANSetMask@tamp+2
  2701  002D40  C034  F039         	movff	??_CANSetMask+3,CANSetMask@tamp+3
  2702                           
  2703                           ;inc\CANlib.h: 646: tamp = tamp & 0x000000FF;
  2704  002D44  5036               	movf	CANSetMask@tamp,w,c
  2705  002D46  6E36               	movwf	CANSetMask@tamp,c
  2706  002D48  6A37               	clrf	CANSetMask@tamp+1,c
  2707  002D4A  6A38               	clrf	CANSetMask@tamp+2,c
  2708  002D4C  6A39               	clrf	CANSetMask@tamp+3,c
  2709                           
  2710                           ;inc\CANlib.h: 647: RXM0SIDH = (unsigned char) tamp;
  2711  002D4E  C036  FF18         	movff	CANSetMask@tamp,3864	;volatile
  2712                           
  2713                           ;inc\CANlib.h: 649: tamp = mask & 0x00000007;
  2714  002D52  0E07               	movlw	7
  2715  002D54  142C               	andwf	CANSetMask@mask,w,c
  2716  002D56  6E36               	movwf	CANSetMask@tamp,c
  2717  002D58  0E00               	movlw	0
  2718  002D5A  142D               	andwf	CANSetMask@mask+1,w,c
  2719  002D5C  6E37               	movwf	CANSetMask@tamp+1,c
  2720  002D5E  0E00               	movlw	0
  2721  002D60  142E               	andwf	CANSetMask@mask+2,w,c
  2722  002D62  6E38               	movwf	CANSetMask@tamp+2,c
  2723  002D64  0E00               	movlw	0
  2724  002D66  142F               	andwf	CANSetMask@mask+3,w,c
  2725  002D68  6E39               	movwf	CANSetMask@tamp+3,c
  2726                           
  2727                           ;inc\CANlib.h: 650: tamp = tamp << 5;
  2728  002D6A  C036  F031         	movff	CANSetMask@tamp,??_CANSetMask
  2729  002D6E  C037  F032         	movff	CANSetMask@tamp+1,??_CANSetMask+1
  2730  002D72  C038  F033         	movff	CANSetMask@tamp+2,??_CANSetMask+2
  2731  002D76  C039  F034         	movff	CANSetMask@tamp+3,??_CANSetMask+3
  2732  002D7A  0E05               	movlw	5
  2733  002D7C                     u1645:
  2734  002D7C  90D8               	bcf	status,0,c
  2735  002D7E  3631               	rlcf	??_CANSetMask,f,c
  2736  002D80  3632               	rlcf	??_CANSetMask+1,f,c
  2737  002D82  3633               	rlcf	??_CANSetMask+2,f,c
  2738  002D84  3634               	rlcf	??_CANSetMask+3,f,c
  2739  002D86  2EE8               	decfsz	wreg,f,c
  2740  002D88  D7F9               	goto	u1645
  2741  002D8A  C031  F036         	movff	??_CANSetMask,CANSetMask@tamp
  2742  002D8E  C032  F037         	movff	??_CANSetMask+1,CANSetMask@tamp+1
  2743  002D92  C033  F038         	movff	??_CANSetMask+2,CANSetMask@tamp+2
  2744  002D96  C034  F039         	movff	??_CANSetMask+3,CANSetMask@tamp+3
  2745                           
  2746                           ;inc\CANlib.h: 651: RXM0SIDL = (unsigned char) tamp;
  2747  002D9A  C036  FF19         	movff	CANSetMask@tamp,3865	;volatile
  2748  002D9E                     l2184:
  2749                           
  2750                           ;inc\CANlib.h: 652: }
  2751                           ;inc\CANlib.h: 654: if ((numBuffer ==CAN_MASK_B2) && (type == CAN_CONFIG_STD_MSG))
  2752  002D9E  0E02               	movlw	2
  2753  002DA0  1835               	xorwf	CANSetMask@numBuffer,w,c
  2754  002DA2  A4D8               	btfss	status,2,c
  2755  002DA4  D049               	goto	l2200
  2756  002DA6  2830               	incf	CANSetMask@type,w,c
  2757  002DA8  A4D8               	btfss	status,2,c
  2758  002DAA  D046               	goto	l2200
  2759                           
  2760                           ;inc\CANlib.h: 655: {
  2761                           ;inc\CANlib.h: 656: tamp = (mask >> 3);
  2762  002DAC  C02C  F031         	movff	CANSetMask@mask,??_CANSetMask
  2763  002DB0  C02D  F032         	movff	CANSetMask@mask+1,??_CANSetMask+1
  2764  002DB4  C02E  F033         	movff	CANSetMask@mask+2,??_CANSetMask+2
  2765  002DB8  C02F  F034         	movff	CANSetMask@mask+3,??_CANSetMask+3
  2766  002DBC  0E04               	movlw	4
  2767  002DBE  D005               	goto	u1670
  2768  002DC0                     u1675:
  2769  002DC0  90D8               	bcf	status,0,c
  2770  002DC2  3234               	rrcf	??_CANSetMask+3,f,c
  2771  002DC4  3233               	rrcf	??_CANSetMask+2,f,c
  2772  002DC6  3232               	rrcf	??_CANSetMask+1,f,c
  2773  002DC8  3231               	rrcf	??_CANSetMask,f,c
  2774  002DCA                     u1670:
  2775  002DCA  2EE8               	decfsz	wreg,f,c
  2776  002DCC  D7F9               	goto	u1675
  2777  002DCE  C031  F036         	movff	??_CANSetMask,CANSetMask@tamp
  2778  002DD2  C032  F037         	movff	??_CANSetMask+1,CANSetMask@tamp+1
  2779  002DD6  C033  F038         	movff	??_CANSetMask+2,CANSetMask@tamp+2
  2780  002DDA  C034  F039         	movff	??_CANSetMask+3,CANSetMask@tamp+3
  2781                           
  2782                           ;inc\CANlib.h: 657: tamp = tamp & 0x000000FF;
  2783  002DDE  5036               	movf	CANSetMask@tamp,w,c
  2784  002DE0  6E36               	movwf	CANSetMask@tamp,c
  2785  002DE2  6A37               	clrf	CANSetMask@tamp+1,c
  2786  002DE4  6A38               	clrf	CANSetMask@tamp+2,c
  2787  002DE6  6A39               	clrf	CANSetMask@tamp+3,c
  2788                           
  2789                           ;inc\CANlib.h: 658: RXM1SIDH = (unsigned char) tamp;
  2790  002DE8  C036  FF1C         	movff	CANSetMask@tamp,3868	;volatile
  2791                           
  2792                           ;inc\CANlib.h: 660: tamp = mask & 0x00000007;
  2793  002DEC  0E07               	movlw	7
  2794  002DEE  142C               	andwf	CANSetMask@mask,w,c
  2795  002DF0  6E36               	movwf	CANSetMask@tamp,c
  2796  002DF2  0E00               	movlw	0
  2797  002DF4  142D               	andwf	CANSetMask@mask+1,w,c
  2798  002DF6  6E37               	movwf	CANSetMask@tamp+1,c
  2799  002DF8  0E00               	movlw	0
  2800  002DFA  142E               	andwf	CANSetMask@mask+2,w,c
  2801  002DFC  6E38               	movwf	CANSetMask@tamp+2,c
  2802  002DFE  0E00               	movlw	0
  2803  002E00  142F               	andwf	CANSetMask@mask+3,w,c
  2804  002E02  6E39               	movwf	CANSetMask@tamp+3,c
  2805                           
  2806                           ;inc\CANlib.h: 661: tamp = tamp << 5;
  2807  002E04  C036  F031         	movff	CANSetMask@tamp,??_CANSetMask
  2808  002E08  C037  F032         	movff	CANSetMask@tamp+1,??_CANSetMask+1
  2809  002E0C  C038  F033         	movff	CANSetMask@tamp+2,??_CANSetMask+2
  2810  002E10  C039  F034         	movff	CANSetMask@tamp+3,??_CANSetMask+3
  2811  002E14  0E05               	movlw	5
  2812  002E16                     u1685:
  2813  002E16  90D8               	bcf	status,0,c
  2814  002E18  3631               	rlcf	??_CANSetMask,f,c
  2815  002E1A  3632               	rlcf	??_CANSetMask+1,f,c
  2816  002E1C  3633               	rlcf	??_CANSetMask+2,f,c
  2817  002E1E  3634               	rlcf	??_CANSetMask+3,f,c
  2818  002E20  2EE8               	decfsz	wreg,f,c
  2819  002E22  D7F9               	goto	u1685
  2820  002E24  C031  F036         	movff	??_CANSetMask,CANSetMask@tamp
  2821  002E28  C032  F037         	movff	??_CANSetMask+1,CANSetMask@tamp+1
  2822  002E2C  C033  F038         	movff	??_CANSetMask+2,CANSetMask@tamp+2
  2823  002E30  C034  F039         	movff	??_CANSetMask+3,CANSetMask@tamp+3
  2824                           
  2825                           ;inc\CANlib.h: 662: RXM1SIDL = (unsigned char) tamp;
  2826  002E34  C036  FF1D         	movff	CANSetMask@tamp,3869	;volatile
  2827  002E38                     l2200:
  2828                           
  2829                           ;inc\CANlib.h: 663: }
  2830                           ;inc\CANlib.h: 665: if ((numBuffer ==CAN_MASK_B1) && (type == CAN_CONFIG_XTD_MSG))
  2831  002E38  0435               	decf	CANSetMask@numBuffer,w,c
  2832  002E3A  A4D8               	btfss	status,2,c
  2833  002E3C  D073               	goto	l2232
  2834  002E3E  0EF7               	movlw	247
  2835  002E40  1830               	xorwf	CANSetMask@type,w,c
  2836  002E42  A4D8               	btfss	status,2,c
  2837  002E44  D06F               	goto	l2232
  2838                           
  2839                           ;inc\CANlib.h: 666: {
  2840                           ;inc\CANlib.h: 667: tamp = mask & 0x000000FF;
  2841  002E46  502C               	movf	CANSetMask@mask,w,c
  2842  002E48  6E36               	movwf	CANSetMask@tamp,c
  2843  002E4A  6A37               	clrf	CANSetMask@tamp+1,c
  2844  002E4C  6A38               	clrf	CANSetMask@tamp+2,c
  2845  002E4E  6A39               	clrf	CANSetMask@tamp+3,c
  2846                           
  2847                           ;inc\CANlib.h: 668: RXM0EIDL = (unsigned char) tamp;
  2848  002E50  C036  FF1B         	movff	CANSetMask@tamp,3867	;volatile
  2849                           
  2850                           ;inc\CANlib.h: 670: tamp = mask & 0x0000FF00;
  2851  002E54  0E00               	movlw	0
  2852  002E56  142C               	andwf	CANSetMask@mask,w,c
  2853  002E58  6E36               	movwf	CANSetMask@tamp,c
  2854  002E5A  0EFF               	movlw	255
  2855  002E5C  142D               	andwf	CANSetMask@mask+1,w,c
  2856  002E5E  6E37               	movwf	CANSetMask@tamp+1,c
  2857  002E60  0E00               	movlw	0
  2858  002E62  142E               	andwf	CANSetMask@mask+2,w,c
  2859  002E64  6E38               	movwf	CANSetMask@tamp+2,c
  2860  002E66  0E00               	movlw	0
  2861  002E68  142F               	andwf	CANSetMask@mask+3,w,c
  2862  002E6A  6E39               	movwf	CANSetMask@tamp+3,c
  2863                           
  2864                           ;inc\CANlib.h: 671: tamp = tamp >> 8;
  2865  002E6C  C036  F031         	movff	CANSetMask@tamp,??_CANSetMask
  2866  002E70  C037  F032         	movff	CANSetMask@tamp+1,??_CANSetMask+1
  2867  002E74  C038  F033         	movff	CANSetMask@tamp+2,??_CANSetMask+2
  2868  002E78  C039  F034         	movff	CANSetMask@tamp+3,??_CANSetMask+3
  2869  002E7C  C032  F031         	movff	??_CANSetMask+1,??_CANSetMask
  2870  002E80  C033  F032         	movff	??_CANSetMask+2,??_CANSetMask+1
  2871  002E84  C034  F033         	movff	??_CANSetMask+3,??_CANSetMask+2
  2872  002E88  6A34               	clrf	??_CANSetMask+3,c
  2873  002E8A  C031  F036         	movff	??_CANSetMask,CANSetMask@tamp
  2874  002E8E  C032  F037         	movff	??_CANSetMask+1,CANSetMask@tamp+1
  2875  002E92  C033  F038         	movff	??_CANSetMask+2,CANSetMask@tamp+2
  2876  002E96  C034  F039         	movff	??_CANSetMask+3,CANSetMask@tamp+3
  2877                           
  2878                           ;inc\CANlib.h: 672: RXM0EIDH = (unsigned char) tamp;
  2879  002E9A  C036  FF1A         	movff	CANSetMask@tamp,3866	;volatile
  2880                           
  2881                           ;inc\CANlib.h: 674: if (mask & 0x00010000)
  2882  002E9E  A02E               	btfss	CANSetMask@mask+2,0,c
  2883  002EA0  D003               	goto	l402
  2884                           
  2885                           ;inc\CANlib.h: 675: RXM0SIDLbits.EID16 = 0x01;
  2886  002EA2  010F               	movlb	15	; () banked
  2887  002EA4  8119               	bsf	25,0,b	;volatile
  2888  002EA6  D002               	goto	l403
  2889  002EA8                     l402:
  2890                           
  2891                           ;inc\CANlib.h: 676: else
  2892                           ;inc\CANlib.h: 677: RXM0SIDLbits.EID16 = 0x00;
  2893  002EA8  010F               	movlb	15	; () banked
  2894  002EAA  9119               	bcf	25,0,b	;volatile
  2895  002EAC                     l403:
  2896                           
  2897                           ; BSR set to: 15
  2898                           ;inc\CANlib.h: 679: if (mask & 0x00020000)
  2899  002EAC  A22E               	btfss	CANSetMask@mask+2,1,c
  2900  002EAE  D003               	goto	l404
  2901                           
  2902                           ; BSR set to: 15
  2903                           ;inc\CANlib.h: 680: RXM0SIDLbits.EID17 = 0x01;
  2904  002EB0  010F               	movlb	15	; () banked
  2905  002EB2  8319               	bsf	25,1,b	;volatile
  2906  002EB4  D002               	goto	l405
  2907  002EB6                     l404:
  2908                           
  2909                           ; BSR set to: 15
  2910                           ;inc\CANlib.h: 681: else
  2911                           ;inc\CANlib.h: 682: RXM0SIDLbits.EID17 = 0x00;
  2912  002EB6  010F               	movlb	15	; () banked
  2913  002EB8  9319               	bcf	25,1,b	;volatile
  2914  002EBA                     l405:
  2915                           
  2916                           ; BSR set to: 15
  2917                           ;inc\CANlib.h: 684: if (mask & 0x00040000)
  2918  002EBA  A42E               	btfss	CANSetMask@mask+2,2,c
  2919  002EBC  D003               	goto	l406
  2920                           
  2921                           ; BSR set to: 15
  2922                           ;inc\CANlib.h: 685: RXM0SIDLbits.SID0 = 0x01;
  2923  002EBE  010F               	movlb	15	; () banked
  2924  002EC0  8B19               	bsf	25,5,b	;volatile
  2925  002EC2  D002               	goto	l407
  2926  002EC4                     l406:
  2927                           
  2928                           ; BSR set to: 15
  2929                           ;inc\CANlib.h: 686: else
  2930                           ;inc\CANlib.h: 687: RXM0SIDLbits.SID0 = 0x00;
  2931  002EC4  010F               	movlb	15	; () banked
  2932  002EC6  9B19               	bcf	25,5,b	;volatile
  2933  002EC8                     l407:
  2934                           
  2935                           ; BSR set to: 15
  2936                           ;inc\CANlib.h: 689: if (mask & 0x00080000)
  2937  002EC8  A62E               	btfss	CANSetMask@mask+2,3,c
  2938  002ECA  D003               	goto	l408
  2939                           
  2940                           ; BSR set to: 15
  2941                           ;inc\CANlib.h: 690: RXM0SIDLbits.SID1 = 0x01;
  2942  002ECC  010F               	movlb	15	; () banked
  2943  002ECE  8D19               	bsf	25,6,b	;volatile
  2944  002ED0  D002               	goto	l409
  2945  002ED2                     l408:
  2946                           
  2947                           ; BSR set to: 15
  2948                           ;inc\CANlib.h: 691: else
  2949                           ;inc\CANlib.h: 692: RXM0SIDLbits.SID1 = 0x00;
  2950  002ED2  010F               	movlb	15	; () banked
  2951  002ED4  9D19               	bcf	25,6,b	;volatile
  2952  002ED6                     l409:
  2953                           
  2954                           ; BSR set to: 15
  2955                           ;inc\CANlib.h: 694: if (mask & 0x00100000)
  2956  002ED6  A82E               	btfss	CANSetMask@mask+2,4,c
  2957  002ED8  D003               	goto	l410
  2958                           
  2959                           ; BSR set to: 15
  2960                           ;inc\CANlib.h: 695: RXM0SIDLbits.SID2 = 0x01 ;
  2961  002EDA  010F               	movlb	15	; () banked
  2962  002EDC  8F19               	bsf	25,7,b	;volatile
  2963  002EDE  D002               	goto	l2226
  2964  002EE0                     l410:
  2965                           
  2966                           ; BSR set to: 15
  2967                           ;inc\CANlib.h: 696: else
  2968                           ;inc\CANlib.h: 697: RXM0SIDLbits.SID2 = 0x00 ;
  2969  002EE0  010F               	movlb	15	; () banked
  2970  002EE2  9F19               	bcf	25,7,b	;volatile
  2971  002EE4                     l2226:
  2972                           
  2973                           ; BSR set to: 15
  2974                           ;inc\CANlib.h: 699: tamp = (mask >> 21);
  2975  002EE4  C02C  F031         	movff	CANSetMask@mask,??_CANSetMask
  2976  002EE8  C02D  F032         	movff	CANSetMask@mask+1,??_CANSetMask+1
  2977  002EEC  C02E  F033         	movff	CANSetMask@mask+2,??_CANSetMask+2
  2978  002EF0  C02F  F034         	movff	CANSetMask@mask+3,??_CANSetMask+3
  2979  002EF4  0E16               	movlw	22
  2980  002EF6  D005               	goto	u1760
  2981  002EF8                     u1765:
  2982  002EF8  90D8               	bcf	status,0,c
  2983  002EFA  3234               	rrcf	??_CANSetMask+3,f,c
  2984  002EFC  3233               	rrcf	??_CANSetMask+2,f,c
  2985  002EFE  3232               	rrcf	??_CANSetMask+1,f,c
  2986  002F00  3231               	rrcf	??_CANSetMask,f,c
  2987  002F02                     u1760:
  2988  002F02  2EE8               	decfsz	wreg,f,c
  2989  002F04  D7F9               	goto	u1765
  2990  002F06  C031  F036         	movff	??_CANSetMask,CANSetMask@tamp
  2991  002F0A  C032  F037         	movff	??_CANSetMask+1,CANSetMask@tamp+1
  2992  002F0E  C033  F038         	movff	??_CANSetMask+2,CANSetMask@tamp+2
  2993  002F12  C034  F039         	movff	??_CANSetMask+3,CANSetMask@tamp+3
  2994                           
  2995                           ; BSR set to: 15
  2996                           ;inc\CANlib.h: 700: tamp = tamp & 0x000000FF;
  2997  002F16  5036               	movf	CANSetMask@tamp,w,c
  2998  002F18  6E36               	movwf	CANSetMask@tamp,c
  2999  002F1A  6A37               	clrf	CANSetMask@tamp+1,c
  3000  002F1C  6A38               	clrf	CANSetMask@tamp+2,c
  3001  002F1E  6A39               	clrf	CANSetMask@tamp+3,c
  3002                           
  3003                           ; BSR set to: 15
  3004                           ;inc\CANlib.h: 701: RXM0SIDH = (unsigned char) tamp;
  3005  002F20  C036  FF18         	movff	CANSetMask@tamp,3864	;volatile
  3006  002F24                     l2232:
  3007                           
  3008                           ;inc\CANlib.h: 702: }
  3009                           ;inc\CANlib.h: 704: if ((numBuffer ==CAN_MASK_B2) && (type == CAN_CONFIG_XTD_MSG))
  3010  002F24  0E02               	movlw	2
  3011  002F26  1835               	xorwf	CANSetMask@numBuffer,w,c
  3012  002F28  A4D8               	btfss	status,2,c
  3013  002F2A  0012               	return	
  3014  002F2C  0EF7               	movlw	247
  3015  002F2E  1830               	xorwf	CANSetMask@type,w,c
  3016  002F30  A4D8               	btfss	status,2,c
  3017  002F32  0012               	return	
  3018                           
  3019                           ;inc\CANlib.h: 705: {
  3020                           ;inc\CANlib.h: 706: tamp = mask & 0x000000FF;
  3021  002F34  502C               	movf	CANSetMask@mask,w,c
  3022  002F36  6E36               	movwf	CANSetMask@tamp,c
  3023  002F38  6A37               	clrf	CANSetMask@tamp+1,c
  3024  002F3A  6A38               	clrf	CANSetMask@tamp+2,c
  3025  002F3C  6A39               	clrf	CANSetMask@tamp+3,c
  3026                           
  3027                           ;inc\CANlib.h: 707: RXM1EIDL = (unsigned char) tamp;
  3028  002F3E  C036  FF1F         	movff	CANSetMask@tamp,3871	;volatile
  3029                           
  3030                           ;inc\CANlib.h: 709: tamp = mask & 0x0000FF00;
  3031  002F42  0E00               	movlw	0
  3032  002F44  142C               	andwf	CANSetMask@mask,w,c
  3033  002F46  6E36               	movwf	CANSetMask@tamp,c
  3034  002F48  0EFF               	movlw	255
  3035  002F4A  142D               	andwf	CANSetMask@mask+1,w,c
  3036  002F4C  6E37               	movwf	CANSetMask@tamp+1,c
  3037  002F4E  0E00               	movlw	0
  3038  002F50  142E               	andwf	CANSetMask@mask+2,w,c
  3039  002F52  6E38               	movwf	CANSetMask@tamp+2,c
  3040  002F54  0E00               	movlw	0
  3041  002F56  142F               	andwf	CANSetMask@mask+3,w,c
  3042  002F58  6E39               	movwf	CANSetMask@tamp+3,c
  3043                           
  3044                           ;inc\CANlib.h: 710: tamp = tamp >> 8;
  3045  002F5A  C036  F031         	movff	CANSetMask@tamp,??_CANSetMask
  3046  002F5E  C037  F032         	movff	CANSetMask@tamp+1,??_CANSetMask+1
  3047  002F62  C038  F033         	movff	CANSetMask@tamp+2,??_CANSetMask+2
  3048  002F66  C039  F034         	movff	CANSetMask@tamp+3,??_CANSetMask+3
  3049  002F6A  C032  F031         	movff	??_CANSetMask+1,??_CANSetMask
  3050  002F6E  C033  F032         	movff	??_CANSetMask+2,??_CANSetMask+1
  3051  002F72  C034  F033         	movff	??_CANSetMask+3,??_CANSetMask+2
  3052  002F76  6A34               	clrf	??_CANSetMask+3,c
  3053  002F78  C031  F036         	movff	??_CANSetMask,CANSetMask@tamp
  3054  002F7C  C032  F037         	movff	??_CANSetMask+1,CANSetMask@tamp+1
  3055  002F80  C033  F038         	movff	??_CANSetMask+2,CANSetMask@tamp+2
  3056  002F84  C034  F039         	movff	??_CANSetMask+3,CANSetMask@tamp+3
  3057                           
  3058                           ;inc\CANlib.h: 711: RXM1EIDH = (unsigned char) tamp;
  3059  002F88  C036  FF1E         	movff	CANSetMask@tamp,3870	;volatile
  3060                           
  3061                           ;inc\CANlib.h: 713: if (mask & 0x00010000)
  3062  002F8C  A02E               	btfss	CANSetMask@mask+2,0,c
  3063  002F8E  D003               	goto	l413
  3064                           
  3065                           ;inc\CANlib.h: 714: RXM1SIDLbits.EID16 = 0x01;
  3066  002F90  010F               	movlb	15	; () banked
  3067  002F92  811D               	bsf	29,0,b	;volatile
  3068  002F94  D002               	goto	l414
  3069  002F96                     l413:
  3070                           
  3071                           ;inc\CANlib.h: 715: else
  3072                           ;inc\CANlib.h: 716: RXM1SIDLbits.EID16 = 0x00;
  3073  002F96  010F               	movlb	15	; () banked
  3074  002F98  911D               	bcf	29,0,b	;volatile
  3075  002F9A                     l414:
  3076                           
  3077                           ; BSR set to: 15
  3078                           ;inc\CANlib.h: 718: if (mask & 0x00020000)
  3079  002F9A  A22E               	btfss	CANSetMask@mask+2,1,c
  3080  002F9C  D003               	goto	l415
  3081                           
  3082                           ; BSR set to: 15
  3083                           ;inc\CANlib.h: 719: RXM1SIDLbits.EID17 = 0x01;
  3084  002F9E  010F               	movlb	15	; () banked
  3085  002FA0  831D               	bsf	29,1,b	;volatile
  3086  002FA2  D002               	goto	l416
  3087  002FA4                     l415:
  3088                           
  3089                           ; BSR set to: 15
  3090                           ;inc\CANlib.h: 720: else
  3091                           ;inc\CANlib.h: 721: RXM1SIDLbits.EID17 = 0x00;
  3092  002FA4  010F               	movlb	15	; () banked
  3093  002FA6  931D               	bcf	29,1,b	;volatile
  3094  002FA8                     l416:
  3095                           
  3096                           ; BSR set to: 15
  3097                           ;inc\CANlib.h: 723: if (mask & 0x00040000)
  3098  002FA8  A42E               	btfss	CANSetMask@mask+2,2,c
  3099  002FAA  D003               	goto	l417
  3100                           
  3101                           ; BSR set to: 15
  3102                           ;inc\CANlib.h: 724: RXM1SIDLbits.SID0 = 0x01;
  3103  002FAC  010F               	movlb	15	; () banked
  3104  002FAE  8B1D               	bsf	29,5,b	;volatile
  3105  002FB0  D002               	goto	l418
  3106  002FB2                     l417:
  3107                           
  3108                           ; BSR set to: 15
  3109                           ;inc\CANlib.h: 725: else
  3110                           ;inc\CANlib.h: 726: RXM1SIDLbits.SID0 = 0x00;
  3111  002FB2  010F               	movlb	15	; () banked
  3112  002FB4  9B1D               	bcf	29,5,b	;volatile
  3113  002FB6                     l418:
  3114                           
  3115                           ; BSR set to: 15
  3116                           ;inc\CANlib.h: 728: if (mask & 0x00080000)
  3117  002FB6  A62E               	btfss	CANSetMask@mask+2,3,c
  3118  002FB8  D003               	goto	l419
  3119                           
  3120                           ; BSR set to: 15
  3121                           ;inc\CANlib.h: 729: RXM1SIDLbits.SID1 = 0x01;
  3122  002FBA  010F               	movlb	15	; () banked
  3123  002FBC  8D1D               	bsf	29,6,b	;volatile
  3124  002FBE  D002               	goto	l420
  3125  002FC0                     l419:
  3126                           
  3127                           ; BSR set to: 15
  3128                           ;inc\CANlib.h: 730: else
  3129                           ;inc\CANlib.h: 731: RXM1SIDLbits.SID1 = 0x00;
  3130  002FC0  010F               	movlb	15	; () banked
  3131  002FC2  9D1D               	bcf	29,6,b	;volatile
  3132  002FC4                     l420:
  3133                           
  3134                           ; BSR set to: 15
  3135                           ;inc\CANlib.h: 733: if (mask & 0x00100000)
  3136  002FC4  A82E               	btfss	CANSetMask@mask+2,4,c
  3137  002FC6  D003               	goto	l421
  3138                           
  3139                           ; BSR set to: 15
  3140                           ;inc\CANlib.h: 734: RXM1SIDLbits.SID2 = 0x01 ;
  3141  002FC8  010F               	movlb	15	; () banked
  3142  002FCA  8F1D               	bsf	29,7,b	;volatile
  3143  002FCC  D002               	goto	l2258
  3144  002FCE                     l421:
  3145                           
  3146                           ; BSR set to: 15
  3147                           ;inc\CANlib.h: 735: else
  3148                           ;inc\CANlib.h: 736: RXM1SIDLbits.SID2 = 0x00 ;
  3149  002FCE  010F               	movlb	15	; () banked
  3150  002FD0  9F1D               	bcf	29,7,b	;volatile
  3151  002FD2                     l2258:
  3152                           
  3153                           ; BSR set to: 15
  3154                           ;inc\CANlib.h: 738: tamp = (mask >> 21);
  3155  002FD2  C02C  F031         	movff	CANSetMask@mask,??_CANSetMask
  3156  002FD6  C02D  F032         	movff	CANSetMask@mask+1,??_CANSetMask+1
  3157  002FDA  C02E  F033         	movff	CANSetMask@mask+2,??_CANSetMask+2
  3158  002FDE  C02F  F034         	movff	CANSetMask@mask+3,??_CANSetMask+3
  3159  002FE2  0E16               	movlw	22
  3160  002FE4  D005               	goto	u1840
  3161  002FE6                     u1845:
  3162  002FE6  90D8               	bcf	status,0,c
  3163  002FE8  3234               	rrcf	??_CANSetMask+3,f,c
  3164  002FEA  3233               	rrcf	??_CANSetMask+2,f,c
  3165  002FEC  3232               	rrcf	??_CANSetMask+1,f,c
  3166  002FEE  3231               	rrcf	??_CANSetMask,f,c
  3167  002FF0                     u1840:
  3168  002FF0  2EE8               	decfsz	wreg,f,c
  3169  002FF2  D7F9               	goto	u1845
  3170  002FF4  C031  F036         	movff	??_CANSetMask,CANSetMask@tamp
  3171  002FF8  C032  F037         	movff	??_CANSetMask+1,CANSetMask@tamp+1
  3172  002FFC  C033  F038         	movff	??_CANSetMask+2,CANSetMask@tamp+2
  3173  003000  C034  F039         	movff	??_CANSetMask+3,CANSetMask@tamp+3
  3174                           
  3175                           ; BSR set to: 15
  3176                           ;inc\CANlib.h: 739: tamp = tamp & 0x000000FF;
  3177  003004  5036               	movf	CANSetMask@tamp,w,c
  3178  003006  6E36               	movwf	CANSetMask@tamp,c
  3179  003008  6A37               	clrf	CANSetMask@tamp+1,c
  3180  00300A  6A38               	clrf	CANSetMask@tamp+2,c
  3181  00300C  6A39               	clrf	CANSetMask@tamp+3,c
  3182                           
  3183                           ; BSR set to: 15
  3184                           ;inc\CANlib.h: 740: RXM1SIDH = (unsigned char) tamp;
  3185  00300E  C036  FF1C         	movff	CANSetMask@tamp,3868	;volatile
  3186  003012  0012               	return	
  3187  003014                     __end_of_CANSetMask:
  3188                           	opt stack 0
  3189                           tblptru	equ	0xFF8
  3190                           intcon	equ	0xFF2
  3191                           intcon2	equ	0xFF1
  3192                           postinc0	equ	0xFEE
  3193                           wreg	equ	0xFE8
  3194                           indf2	equ	0xFDF
  3195                           fsr2h	equ	0xFDA
  3196                           fsr2l	equ	0xFD9
  3197                           status	equ	0xFD8
  3198                           
  3199 ;; *************** function _CANSetFilter *****************
  3200 ;; Defined at:
  3201 ;;		line 748 in file "../../../LaurTec_PIC_libraries_v_3.3.0/inc\CANlib.h"
  3202 ;; Parameters:    Size  Location     Type
  3203 ;;  numBuffer       1    wreg     enum E16881
  3204 ;;  filter          4    0[COMRAM] unsigned long 
  3205 ;;  type            1    4[COMRAM] enum E16844
  3206 ;; Auto vars:     Size  Location     Type
  3207 ;;  numBuffer       1    9[COMRAM] enum E16881
  3208 ;;  tamp            4   10[COMRAM] unsigned long 
  3209 ;; Return value:  Size  Location     Type
  3210 ;;		None               void
  3211 ;; Registers used:
  3212 ;;		wreg, status,2, status,0
  3213 ;; Tracked objects:
  3214 ;;		On entry : 0/0
  3215 ;;		On exit  : 0/0
  3216 ;;		Unchanged: 0/0
  3217 ;; Data sizes:     COMRAM   BANK0   BANK1   BANK2
  3218 ;;      Params:         5       0       0       0
  3219 ;;      Locals:         5       0       0       0
  3220 ;;      Temps:          4       0       0       0
  3221 ;;      Totals:        14       0       0       0
  3222 ;;Total ram usage:       14 bytes
  3223 ;; Hardware stack levels used:    1
  3224 ;; This function calls:
  3225 ;;		Nothing
  3226 ;; This function is called by:
  3227 ;;		_CANInitialize
  3228 ;; This function uses a non-reentrant model
  3229 ;;
  3230                           
  3231                           	psect	text8
  3232  0036A4                     __ptext8:
  3233                           	opt stack 0
  3234  0036A4                     _CANSetFilter:
  3235                           	opt stack 28
  3236                           
  3237                           ;incstack = 0
  3238                           ;CANSetFilter@numBuffer stored from wreg
  3239  0036A4  6E35               	movwf	CANSetFilter@numBuffer,c
  3240                           
  3241                           ;inc\CANlib.h: 750: unsigned long tamp;
  3242                           ;inc\CANlib.h: 752: if ((numBuffer ==CAN_FILTER_B1_F1) && (type == CAN_CONFIG_STD_MSG))
  3243  0036A6  5035               	movf	CANSetFilter@numBuffer,w,c
  3244  0036A8  A4D8               	btfss	status,2,c
  3245  0036AA  D04B               	goto	l2282
  3246  0036AC  2830               	incf	CANSetFilter@type,w,c
  3247  0036AE  A4D8               	btfss	status,2,c
  3248  0036B0  D048               	goto	l2282
  3249                           
  3250                           ;inc\CANlib.h: 753: {
  3251                           ;inc\CANlib.h: 754: RXF0SIDLbits.EXIDEN = 0x00;
  3252  0036B2  010F               	movlb	15	; () banked
  3253  0036B4  9701               	bcf	1,3,b	;volatile
  3254                           
  3255                           ; BSR set to: 15
  3256                           ;inc\CANlib.h: 756: tamp = (filter >> 3);
  3257  0036B6  C02C  F031         	movff	CANSetFilter@filter,??_CANSetFilter
  3258  0036BA  C02D  F032         	movff	CANSetFilter@filter+1,??_CANSetFilter+1
  3259  0036BE  C02E  F033         	movff	CANSetFilter@filter+2,??_CANSetFilter+2
  3260  0036C2  C02F  F034         	movff	CANSetFilter@filter+3,??_CANSetFilter+3
  3261  0036C6  0E04               	movlw	4
  3262  0036C8  D005               	goto	u1870
  3263  0036CA                     u1875:
  3264  0036CA  90D8               	bcf	status,0,c
  3265  0036CC  3234               	rrcf	??_CANSetFilter+3,f,c
  3266  0036CE  3233               	rrcf	??_CANSetFilter+2,f,c
  3267  0036D0  3232               	rrcf	??_CANSetFilter+1,f,c
  3268  0036D2  3231               	rrcf	??_CANSetFilter,f,c
  3269  0036D4                     u1870:
  3270  0036D4  2EE8               	decfsz	wreg,f,c
  3271  0036D6  D7F9               	goto	u1875
  3272  0036D8  C031  F036         	movff	??_CANSetFilter,CANSetFilter@tamp
  3273  0036DC  C032  F037         	movff	??_CANSetFilter+1,CANSetFilter@tamp+1
  3274  0036E0  C033  F038         	movff	??_CANSetFilter+2,CANSetFilter@tamp+2
  3275  0036E4  C034  F039         	movff	??_CANSetFilter+3,CANSetFilter@tamp+3
  3276                           
  3277                           ; BSR set to: 15
  3278                           ;inc\CANlib.h: 757: tamp = tamp & 0x000000FF;
  3279  0036E8  5036               	movf	CANSetFilter@tamp,w,c
  3280  0036EA  6E36               	movwf	CANSetFilter@tamp,c
  3281  0036EC  6A37               	clrf	CANSetFilter@tamp+1,c
  3282  0036EE  6A38               	clrf	CANSetFilter@tamp+2,c
  3283  0036F0  6A39               	clrf	CANSetFilter@tamp+3,c
  3284                           
  3285                           ; BSR set to: 15
  3286                           ;inc\CANlib.h: 758: RXF0SIDH = (unsigned char) tamp;
  3287  0036F2  C036  FF00         	movff	CANSetFilter@tamp,3840	;volatile
  3288                           
  3289                           ; BSR set to: 15
  3290                           ;inc\CANlib.h: 760: tamp = filter & 0x00000007;
  3291  0036F6  0E07               	movlw	7
  3292  0036F8  142C               	andwf	CANSetFilter@filter,w,c
  3293  0036FA  6E36               	movwf	CANSetFilter@tamp,c
  3294  0036FC  0E00               	movlw	0
  3295  0036FE  142D               	andwf	CANSetFilter@filter+1,w,c
  3296  003700  6E37               	movwf	CANSetFilter@tamp+1,c
  3297  003702  0E00               	movlw	0
  3298  003704  142E               	andwf	CANSetFilter@filter+2,w,c
  3299  003706  6E38               	movwf	CANSetFilter@tamp+2,c
  3300  003708  0E00               	movlw	0
  3301  00370A  142F               	andwf	CANSetFilter@filter+3,w,c
  3302  00370C  6E39               	movwf	CANSetFilter@tamp+3,c
  3303                           
  3304                           ; BSR set to: 15
  3305                           ;inc\CANlib.h: 761: tamp = tamp << 5;
  3306  00370E  C036  F031         	movff	CANSetFilter@tamp,??_CANSetFilter
  3307  003712  C037  F032         	movff	CANSetFilter@tamp+1,??_CANSetFilter+1
  3308  003716  C038  F033         	movff	CANSetFilter@tamp+2,??_CANSetFilter+2
  3309  00371A  C039  F034         	movff	CANSetFilter@tamp+3,??_CANSetFilter+3
  3310  00371E  0E05               	movlw	5
  3311  003720                     u1885:
  3312  003720  90D8               	bcf	status,0,c
  3313  003722  3631               	rlcf	??_CANSetFilter,f,c
  3314  003724  3632               	rlcf	??_CANSetFilter+1,f,c
  3315  003726  3633               	rlcf	??_CANSetFilter+2,f,c
  3316  003728  3634               	rlcf	??_CANSetFilter+3,f,c
  3317  00372A  2EE8               	decfsz	wreg,f,c
  3318  00372C  D7F9               	goto	u1885
  3319  00372E  C031  F036         	movff	??_CANSetFilter,CANSetFilter@tamp
  3320  003732  C032  F037         	movff	??_CANSetFilter+1,CANSetFilter@tamp+1
  3321  003736  C033  F038         	movff	??_CANSetFilter+2,CANSetFilter@tamp+2
  3322  00373A  C034  F039         	movff	??_CANSetFilter+3,CANSetFilter@tamp+3
  3323                           
  3324                           ; BSR set to: 15
  3325                           ;inc\CANlib.h: 762: RXF0SIDL = (unsigned char) tamp;
  3326  00373E  C036  FF01         	movff	CANSetFilter@tamp,3841	;volatile
  3327  003742                     l2282:
  3328                           
  3329                           ;inc\CANlib.h: 763: }
  3330                           ;inc\CANlib.h: 765: if ((numBuffer ==CAN_FILTER_B1_F2) && (type == CAN_CONFIG_STD_MSG))
  3331  003742  0435               	decf	CANSetFilter@numBuffer,w,c
  3332  003744  A4D8               	btfss	status,2,c
  3333  003746  D04B               	goto	l2300
  3334  003748  2830               	incf	CANSetFilter@type,w,c
  3335  00374A  A4D8               	btfss	status,2,c
  3336  00374C  D048               	goto	l2300
  3337                           
  3338                           ;inc\CANlib.h: 766: {
  3339                           ;inc\CANlib.h: 767: RXF1SIDLbits.EXIDEN = 0x00;
  3340  00374E  010F               	movlb	15	; () banked
  3341  003750  9705               	bcf	5,3,b	;volatile
  3342                           
  3343                           ; BSR set to: 15
  3344                           ;inc\CANlib.h: 769: tamp = (filter >> 3);
  3345  003752  C02C  F031         	movff	CANSetFilter@filter,??_CANSetFilter
  3346  003756  C02D  F032         	movff	CANSetFilter@filter+1,??_CANSetFilter+1
  3347  00375A  C02E  F033         	movff	CANSetFilter@filter+2,??_CANSetFilter+2
  3348  00375E  C02F  F034         	movff	CANSetFilter@filter+3,??_CANSetFilter+3
  3349  003762  0E04               	movlw	4
  3350  003764  D005               	goto	u1910
  3351  003766                     u1915:
  3352  003766  90D8               	bcf	status,0,c
  3353  003768  3234               	rrcf	??_CANSetFilter+3,f,c
  3354  00376A  3233               	rrcf	??_CANSetFilter+2,f,c
  3355  00376C  3232               	rrcf	??_CANSetFilter+1,f,c
  3356  00376E  3231               	rrcf	??_CANSetFilter,f,c
  3357  003770                     u1910:
  3358  003770  2EE8               	decfsz	wreg,f,c
  3359  003772  D7F9               	goto	u1915
  3360  003774  C031  F036         	movff	??_CANSetFilter,CANSetFilter@tamp
  3361  003778  C032  F037         	movff	??_CANSetFilter+1,CANSetFilter@tamp+1
  3362  00377C  C033  F038         	movff	??_CANSetFilter+2,CANSetFilter@tamp+2
  3363  003780  C034  F039         	movff	??_CANSetFilter+3,CANSetFilter@tamp+3
  3364                           
  3365                           ; BSR set to: 15
  3366                           ;inc\CANlib.h: 770: tamp = tamp & 0x000000FF;
  3367  003784  5036               	movf	CANSetFilter@tamp,w,c
  3368  003786  6E36               	movwf	CANSetFilter@tamp,c
  3369  003788  6A37               	clrf	CANSetFilter@tamp+1,c
  3370  00378A  6A38               	clrf	CANSetFilter@tamp+2,c
  3371  00378C  6A39               	clrf	CANSetFilter@tamp+3,c
  3372                           
  3373                           ; BSR set to: 15
  3374                           ;inc\CANlib.h: 771: RXF1SIDH = (unsigned char) tamp;
  3375  00378E  C036  FF04         	movff	CANSetFilter@tamp,3844	;volatile
  3376                           
  3377                           ; BSR set to: 15
  3378                           ;inc\CANlib.h: 773: tamp = filter & 0x00000007;
  3379  003792  0E07               	movlw	7
  3380  003794  142C               	andwf	CANSetFilter@filter,w,c
  3381  003796  6E36               	movwf	CANSetFilter@tamp,c
  3382  003798  0E00               	movlw	0
  3383  00379A  142D               	andwf	CANSetFilter@filter+1,w,c
  3384  00379C  6E37               	movwf	CANSetFilter@tamp+1,c
  3385  00379E  0E00               	movlw	0
  3386  0037A0  142E               	andwf	CANSetFilter@filter+2,w,c
  3387  0037A2  6E38               	movwf	CANSetFilter@tamp+2,c
  3388  0037A4  0E00               	movlw	0
  3389  0037A6  142F               	andwf	CANSetFilter@filter+3,w,c
  3390  0037A8  6E39               	movwf	CANSetFilter@tamp+3,c
  3391                           
  3392                           ; BSR set to: 15
  3393                           ;inc\CANlib.h: 774: tamp = tamp << 5;
  3394  0037AA  C036  F031         	movff	CANSetFilter@tamp,??_CANSetFilter
  3395  0037AE  C037  F032         	movff	CANSetFilter@tamp+1,??_CANSetFilter+1
  3396  0037B2  C038  F033         	movff	CANSetFilter@tamp+2,??_CANSetFilter+2
  3397  0037B6  C039  F034         	movff	CANSetFilter@tamp+3,??_CANSetFilter+3
  3398  0037BA  0E05               	movlw	5
  3399  0037BC                     u1925:
  3400  0037BC  90D8               	bcf	status,0,c
  3401  0037BE  3631               	rlcf	??_CANSetFilter,f,c
  3402  0037C0  3632               	rlcf	??_CANSetFilter+1,f,c
  3403  0037C2  3633               	rlcf	??_CANSetFilter+2,f,c
  3404  0037C4  3634               	rlcf	??_CANSetFilter+3,f,c
  3405  0037C6  2EE8               	decfsz	wreg,f,c
  3406  0037C8  D7F9               	goto	u1925
  3407  0037CA  C031  F036         	movff	??_CANSetFilter,CANSetFilter@tamp
  3408  0037CE  C032  F037         	movff	??_CANSetFilter+1,CANSetFilter@tamp+1
  3409  0037D2  C033  F038         	movff	??_CANSetFilter+2,CANSetFilter@tamp+2
  3410  0037D6  C034  F039         	movff	??_CANSetFilter+3,CANSetFilter@tamp+3
  3411                           
  3412                           ; BSR set to: 15
  3413                           ;inc\CANlib.h: 775: RXF1SIDL = (unsigned char) tamp;
  3414  0037DA  C036  FF05         	movff	CANSetFilter@tamp,3845	;volatile
  3415  0037DE                     l2300:
  3416                           
  3417                           ;inc\CANlib.h: 776: }
  3418                           ;inc\CANlib.h: 778: if ((numBuffer ==CAN_FILTER_B2_F1) && (type == CAN_CONFIG_STD_MSG))
  3419  0037DE  0E02               	movlw	2
  3420  0037E0  1835               	xorwf	CANSetFilter@numBuffer,w,c
  3421  0037E2  A4D8               	btfss	status,2,c
  3422  0037E4  D04B               	goto	l2318
  3423  0037E6  2830               	incf	CANSetFilter@type,w,c
  3424  0037E8  A4D8               	btfss	status,2,c
  3425  0037EA  D048               	goto	l2318
  3426                           
  3427                           ;inc\CANlib.h: 779: {
  3428                           ;inc\CANlib.h: 780: RXF2SIDLbits.EXIDEN = 0x00;
  3429  0037EC  010F               	movlb	15	; () banked
  3430  0037EE  9709               	bcf	9,3,b	;volatile
  3431                           
  3432                           ; BSR set to: 15
  3433                           ;inc\CANlib.h: 782: tamp = (filter >> 3);
  3434  0037F0  C02C  F031         	movff	CANSetFilter@filter,??_CANSetFilter
  3435  0037F4  C02D  F032         	movff	CANSetFilter@filter+1,??_CANSetFilter+1
  3436  0037F8  C02E  F033         	movff	CANSetFilter@filter+2,??_CANSetFilter+2
  3437  0037FC  C02F  F034         	movff	CANSetFilter@filter+3,??_CANSetFilter+3
  3438  003800  0E04               	movlw	4
  3439  003802  D005               	goto	u1950
  3440  003804                     u1955:
  3441  003804  90D8               	bcf	status,0,c
  3442  003806  3234               	rrcf	??_CANSetFilter+3,f,c
  3443  003808  3233               	rrcf	??_CANSetFilter+2,f,c
  3444  00380A  3232               	rrcf	??_CANSetFilter+1,f,c
  3445  00380C  3231               	rrcf	??_CANSetFilter,f,c
  3446  00380E                     u1950:
  3447  00380E  2EE8               	decfsz	wreg,f,c
  3448  003810  D7F9               	goto	u1955
  3449  003812  C031  F036         	movff	??_CANSetFilter,CANSetFilter@tamp
  3450  003816  C032  F037         	movff	??_CANSetFilter+1,CANSetFilter@tamp+1
  3451  00381A  C033  F038         	movff	??_CANSetFilter+2,CANSetFilter@tamp+2
  3452  00381E  C034  F039         	movff	??_CANSetFilter+3,CANSetFilter@tamp+3
  3453                           
  3454                           ; BSR set to: 15
  3455                           ;inc\CANlib.h: 783: tamp = tamp & 0x000000FF;
  3456  003822  5036               	movf	CANSetFilter@tamp,w,c
  3457  003824  6E36               	movwf	CANSetFilter@tamp,c
  3458  003826  6A37               	clrf	CANSetFilter@tamp+1,c
  3459  003828  6A38               	clrf	CANSetFilter@tamp+2,c
  3460  00382A  6A39               	clrf	CANSetFilter@tamp+3,c
  3461                           
  3462                           ; BSR set to: 15
  3463                           ;inc\CANlib.h: 784: RXF2SIDH = (unsigned char) tamp;
  3464  00382C  C036  FF08         	movff	CANSetFilter@tamp,3848	;volatile
  3465                           
  3466                           ; BSR set to: 15
  3467                           ;inc\CANlib.h: 786: tamp = filter & 0x00000007;
  3468  003830  0E07               	movlw	7
  3469  003832  142C               	andwf	CANSetFilter@filter,w,c
  3470  003834  6E36               	movwf	CANSetFilter@tamp,c
  3471  003836  0E00               	movlw	0
  3472  003838  142D               	andwf	CANSetFilter@filter+1,w,c
  3473  00383A  6E37               	movwf	CANSetFilter@tamp+1,c
  3474  00383C  0E00               	movlw	0
  3475  00383E  142E               	andwf	CANSetFilter@filter+2,w,c
  3476  003840  6E38               	movwf	CANSetFilter@tamp+2,c
  3477  003842  0E00               	movlw	0
  3478  003844  142F               	andwf	CANSetFilter@filter+3,w,c
  3479  003846  6E39               	movwf	CANSetFilter@tamp+3,c
  3480                           
  3481                           ; BSR set to: 15
  3482                           ;inc\CANlib.h: 787: tamp = tamp << 5;
  3483  003848  C036  F031         	movff	CANSetFilter@tamp,??_CANSetFilter
  3484  00384C  C037  F032         	movff	CANSetFilter@tamp+1,??_CANSetFilter+1
  3485  003850  C038  F033         	movff	CANSetFilter@tamp+2,??_CANSetFilter+2
  3486  003854  C039  F034         	movff	CANSetFilter@tamp+3,??_CANSetFilter+3
  3487  003858  0E05               	movlw	5
  3488  00385A                     u1965:
  3489  00385A  90D8               	bcf	status,0,c
  3490  00385C  3631               	rlcf	??_CANSetFilter,f,c
  3491  00385E  3632               	rlcf	??_CANSetFilter+1,f,c
  3492  003860  3633               	rlcf	??_CANSetFilter+2,f,c
  3493  003862  3634               	rlcf	??_CANSetFilter+3,f,c
  3494  003864  2EE8               	decfsz	wreg,f,c
  3495  003866  D7F9               	goto	u1965
  3496  003868  C031  F036         	movff	??_CANSetFilter,CANSetFilter@tamp
  3497  00386C  C032  F037         	movff	??_CANSetFilter+1,CANSetFilter@tamp+1
  3498  003870  C033  F038         	movff	??_CANSetFilter+2,CANSetFilter@tamp+2
  3499  003874  C034  F039         	movff	??_CANSetFilter+3,CANSetFilter@tamp+3
  3500                           
  3501                           ; BSR set to: 15
  3502                           ;inc\CANlib.h: 788: RXF2SIDL = (unsigned char) tamp;
  3503  003878  C036  FF09         	movff	CANSetFilter@tamp,3849	;volatile
  3504  00387C                     l2318:
  3505                           
  3506                           ;inc\CANlib.h: 789: }
  3507                           ;inc\CANlib.h: 791: if ((numBuffer ==CAN_FILTER_B2_F2) && (type == CAN_CONFIG_STD_MSG))
  3508  00387C  0E03               	movlw	3
  3509  00387E  1835               	xorwf	CANSetFilter@numBuffer,w,c
  3510  003880  A4D8               	btfss	status,2,c
  3511  003882  D04B               	goto	l2336
  3512  003884  2830               	incf	CANSetFilter@type,w,c
  3513  003886  A4D8               	btfss	status,2,c
  3514  003888  D048               	goto	l2336
  3515                           
  3516                           ;inc\CANlib.h: 792: {
  3517                           ;inc\CANlib.h: 793: RXF3SIDLbits.EXIDEN = 0x00;
  3518  00388A  010F               	movlb	15	; () banked
  3519  00388C  970D               	bcf	13,3,b	;volatile
  3520                           
  3521                           ; BSR set to: 15
  3522                           ;inc\CANlib.h: 795: tamp = (filter >> 3);
  3523  00388E  C02C  F031         	movff	CANSetFilter@filter,??_CANSetFilter
  3524  003892  C02D  F032         	movff	CANSetFilter@filter+1,??_CANSetFilter+1
  3525  003896  C02E  F033         	movff	CANSetFilter@filter+2,??_CANSetFilter+2
  3526  00389A  C02F  F034         	movff	CANSetFilter@filter+3,??_CANSetFilter+3
  3527  00389E  0E04               	movlw	4
  3528  0038A0  D005               	goto	u1990
  3529  0038A2                     u1995:
  3530  0038A2  90D8               	bcf	status,0,c
  3531  0038A4  3234               	rrcf	??_CANSetFilter+3,f,c
  3532  0038A6  3233               	rrcf	??_CANSetFilter+2,f,c
  3533  0038A8  3232               	rrcf	??_CANSetFilter+1,f,c
  3534  0038AA  3231               	rrcf	??_CANSetFilter,f,c
  3535  0038AC                     u1990:
  3536  0038AC  2EE8               	decfsz	wreg,f,c
  3537  0038AE  D7F9               	goto	u1995
  3538  0038B0  C031  F036         	movff	??_CANSetFilter,CANSetFilter@tamp
  3539  0038B4  C032  F037         	movff	??_CANSetFilter+1,CANSetFilter@tamp+1
  3540  0038B8  C033  F038         	movff	??_CANSetFilter+2,CANSetFilter@tamp+2
  3541  0038BC  C034  F039         	movff	??_CANSetFilter+3,CANSetFilter@tamp+3
  3542                           
  3543                           ; BSR set to: 15
  3544                           ;inc\CANlib.h: 796: tamp = tamp & 0x000000FF;
  3545  0038C0  5036               	movf	CANSetFilter@tamp,w,c
  3546  0038C2  6E36               	movwf	CANSetFilter@tamp,c
  3547  0038C4  6A37               	clrf	CANSetFilter@tamp+1,c
  3548  0038C6  6A38               	clrf	CANSetFilter@tamp+2,c
  3549  0038C8  6A39               	clrf	CANSetFilter@tamp+3,c
  3550                           
  3551                           ; BSR set to: 15
  3552                           ;inc\CANlib.h: 797: RXF3SIDH = (unsigned char) tamp;
  3553  0038CA  C036  FF0C         	movff	CANSetFilter@tamp,3852	;volatile
  3554                           
  3555                           ; BSR set to: 15
  3556                           ;inc\CANlib.h: 799: tamp = filter & 0x00000007;
  3557  0038CE  0E07               	movlw	7
  3558  0038D0  142C               	andwf	CANSetFilter@filter,w,c
  3559  0038D2  6E36               	movwf	CANSetFilter@tamp,c
  3560  0038D4  0E00               	movlw	0
  3561  0038D6  142D               	andwf	CANSetFilter@filter+1,w,c
  3562  0038D8  6E37               	movwf	CANSetFilter@tamp+1,c
  3563  0038DA  0E00               	movlw	0
  3564  0038DC  142E               	andwf	CANSetFilter@filter+2,w,c
  3565  0038DE  6E38               	movwf	CANSetFilter@tamp+2,c
  3566  0038E0  0E00               	movlw	0
  3567  0038E2  142F               	andwf	CANSetFilter@filter+3,w,c
  3568  0038E4  6E39               	movwf	CANSetFilter@tamp+3,c
  3569                           
  3570                           ; BSR set to: 15
  3571                           ;inc\CANlib.h: 800: tamp = tamp << 5;
  3572  0038E6  C036  F031         	movff	CANSetFilter@tamp,??_CANSetFilter
  3573  0038EA  C037  F032         	movff	CANSetFilter@tamp+1,??_CANSetFilter+1
  3574  0038EE  C038  F033         	movff	CANSetFilter@tamp+2,??_CANSetFilter+2
  3575  0038F2  C039  F034         	movff	CANSetFilter@tamp+3,??_CANSetFilter+3
  3576  0038F6  0E05               	movlw	5
  3577  0038F8                     u2005:
  3578  0038F8  90D8               	bcf	status,0,c
  3579  0038FA  3631               	rlcf	??_CANSetFilter,f,c
  3580  0038FC  3632               	rlcf	??_CANSetFilter+1,f,c
  3581  0038FE  3633               	rlcf	??_CANSetFilter+2,f,c
  3582  003900  3634               	rlcf	??_CANSetFilter+3,f,c
  3583  003902  2EE8               	decfsz	wreg,f,c
  3584  003904  D7F9               	goto	u2005
  3585  003906  C031  F036         	movff	??_CANSetFilter,CANSetFilter@tamp
  3586  00390A  C032  F037         	movff	??_CANSetFilter+1,CANSetFilter@tamp+1
  3587  00390E  C033  F038         	movff	??_CANSetFilter+2,CANSetFilter@tamp+2
  3588  003912  C034  F039         	movff	??_CANSetFilter+3,CANSetFilter@tamp+3
  3589                           
  3590                           ; BSR set to: 15
  3591                           ;inc\CANlib.h: 801: RXF3SIDL = (unsigned char) tamp;
  3592  003916  C036  FF0D         	movff	CANSetFilter@tamp,3853	;volatile
  3593  00391A                     l2336:
  3594                           
  3595                           ;inc\CANlib.h: 802: }
  3596                           ;inc\CANlib.h: 804: if ((numBuffer ==CAN_FILTER_B2_F3) && (type == CAN_CONFIG_STD_MSG))
  3597  00391A  0E04               	movlw	4
  3598  00391C  1835               	xorwf	CANSetFilter@numBuffer,w,c
  3599  00391E  A4D8               	btfss	status,2,c
  3600  003920  D04B               	goto	l2354
  3601  003922  2830               	incf	CANSetFilter@type,w,c
  3602  003924  A4D8               	btfss	status,2,c
  3603  003926  D048               	goto	l2354
  3604                           
  3605                           ;inc\CANlib.h: 805: {
  3606                           ;inc\CANlib.h: 806: RXF4SIDLbits.EXIDEN = 0x00;
  3607  003928  010F               	movlb	15	; () banked
  3608  00392A  9711               	bcf	17,3,b	;volatile
  3609                           
  3610                           ; BSR set to: 15
  3611                           ;inc\CANlib.h: 808: tamp = (filter >> 3);
  3612  00392C  C02C  F031         	movff	CANSetFilter@filter,??_CANSetFilter
  3613  003930  C02D  F032         	movff	CANSetFilter@filter+1,??_CANSetFilter+1
  3614  003934  C02E  F033         	movff	CANSetFilter@filter+2,??_CANSetFilter+2
  3615  003938  C02F  F034         	movff	CANSetFilter@filter+3,??_CANSetFilter+3
  3616  00393C  0E04               	movlw	4
  3617  00393E  D005               	goto	u2030
  3618  003940                     u2035:
  3619  003940  90D8               	bcf	status,0,c
  3620  003942  3234               	rrcf	??_CANSetFilter+3,f,c
  3621  003944  3233               	rrcf	??_CANSetFilter+2,f,c
  3622  003946  3232               	rrcf	??_CANSetFilter+1,f,c
  3623  003948  3231               	rrcf	??_CANSetFilter,f,c
  3624  00394A                     u2030:
  3625  00394A  2EE8               	decfsz	wreg,f,c
  3626  00394C  D7F9               	goto	u2035
  3627  00394E  C031  F036         	movff	??_CANSetFilter,CANSetFilter@tamp
  3628  003952  C032  F037         	movff	??_CANSetFilter+1,CANSetFilter@tamp+1
  3629  003956  C033  F038         	movff	??_CANSetFilter+2,CANSetFilter@tamp+2
  3630  00395A  C034  F039         	movff	??_CANSetFilter+3,CANSetFilter@tamp+3
  3631                           
  3632                           ; BSR set to: 15
  3633                           ;inc\CANlib.h: 809: tamp = tamp & 0x000000FF;
  3634  00395E  5036               	movf	CANSetFilter@tamp,w,c
  3635  003960  6E36               	movwf	CANSetFilter@tamp,c
  3636  003962  6A37               	clrf	CANSetFilter@tamp+1,c
  3637  003964  6A38               	clrf	CANSetFilter@tamp+2,c
  3638  003966  6A39               	clrf	CANSetFilter@tamp+3,c
  3639                           
  3640                           ; BSR set to: 15
  3641                           ;inc\CANlib.h: 810: RXF4SIDH = (unsigned char) tamp;
  3642  003968  C036  FF10         	movff	CANSetFilter@tamp,3856	;volatile
  3643                           
  3644                           ; BSR set to: 15
  3645                           ;inc\CANlib.h: 812: tamp = filter & 0x00000007;
  3646  00396C  0E07               	movlw	7
  3647  00396E  142C               	andwf	CANSetFilter@filter,w,c
  3648  003970  6E36               	movwf	CANSetFilter@tamp,c
  3649  003972  0E00               	movlw	0
  3650  003974  142D               	andwf	CANSetFilter@filter+1,w,c
  3651  003976  6E37               	movwf	CANSetFilter@tamp+1,c
  3652  003978  0E00               	movlw	0
  3653  00397A  142E               	andwf	CANSetFilter@filter+2,w,c
  3654  00397C  6E38               	movwf	CANSetFilter@tamp+2,c
  3655  00397E  0E00               	movlw	0
  3656  003980  142F               	andwf	CANSetFilter@filter+3,w,c
  3657  003982  6E39               	movwf	CANSetFilter@tamp+3,c
  3658                           
  3659                           ; BSR set to: 15
  3660                           ;inc\CANlib.h: 813: tamp = tamp << 5;
  3661  003984  C036  F031         	movff	CANSetFilter@tamp,??_CANSetFilter
  3662  003988  C037  F032         	movff	CANSetFilter@tamp+1,??_CANSetFilter+1
  3663  00398C  C038  F033         	movff	CANSetFilter@tamp+2,??_CANSetFilter+2
  3664  003990  C039  F034         	movff	CANSetFilter@tamp+3,??_CANSetFilter+3
  3665  003994  0E05               	movlw	5
  3666  003996                     u2045:
  3667  003996  90D8               	bcf	status,0,c
  3668  003998  3631               	rlcf	??_CANSetFilter,f,c
  3669  00399A  3632               	rlcf	??_CANSetFilter+1,f,c
  3670  00399C  3633               	rlcf	??_CANSetFilter+2,f,c
  3671  00399E  3634               	rlcf	??_CANSetFilter+3,f,c
  3672  0039A0  2EE8               	decfsz	wreg,f,c
  3673  0039A2  D7F9               	goto	u2045
  3674  0039A4  C031  F036         	movff	??_CANSetFilter,CANSetFilter@tamp
  3675  0039A8  C032  F037         	movff	??_CANSetFilter+1,CANSetFilter@tamp+1
  3676  0039AC  C033  F038         	movff	??_CANSetFilter+2,CANSetFilter@tamp+2
  3677  0039B0  C034  F039         	movff	??_CANSetFilter+3,CANSetFilter@tamp+3
  3678                           
  3679                           ; BSR set to: 15
  3680                           ;inc\CANlib.h: 814: RXF4SIDL = (unsigned char) tamp;
  3681  0039B4  C036  FF11         	movff	CANSetFilter@tamp,3857	;volatile
  3682  0039B8                     l2354:
  3683                           
  3684                           ;inc\CANlib.h: 815: }
  3685                           ;inc\CANlib.h: 817: if ((numBuffer ==CAN_FILTER_B2_F4) && (type == CAN_CONFIG_STD_MSG))
  3686  0039B8  0E05               	movlw	5
  3687  0039BA  1835               	xorwf	CANSetFilter@numBuffer,w,c
  3688  0039BC  A4D8               	btfss	status,2,c
  3689  0039BE  D04B               	goto	l2372
  3690  0039C0  2830               	incf	CANSetFilter@type,w,c
  3691  0039C2  A4D8               	btfss	status,2,c
  3692  0039C4  D048               	goto	l2372
  3693                           
  3694                           ;inc\CANlib.h: 818: {
  3695                           ;inc\CANlib.h: 819: RXF5SIDLbits.EXIDEN = 0x00;
  3696  0039C6  010F               	movlb	15	; () banked
  3697  0039C8  9715               	bcf	21,3,b	;volatile
  3698                           
  3699                           ; BSR set to: 15
  3700                           ;inc\CANlib.h: 821: tamp = (filter >> 3);
  3701  0039CA  C02C  F031         	movff	CANSetFilter@filter,??_CANSetFilter
  3702  0039CE  C02D  F032         	movff	CANSetFilter@filter+1,??_CANSetFilter+1
  3703  0039D2  C02E  F033         	movff	CANSetFilter@filter+2,??_CANSetFilter+2
  3704  0039D6  C02F  F034         	movff	CANSetFilter@filter+3,??_CANSetFilter+3
  3705  0039DA  0E04               	movlw	4
  3706  0039DC  D005               	goto	u2070
  3707  0039DE                     u2075:
  3708  0039DE  90D8               	bcf	status,0,c
  3709  0039E0  3234               	rrcf	??_CANSetFilter+3,f,c
  3710  0039E2  3233               	rrcf	??_CANSetFilter+2,f,c
  3711  0039E4  3232               	rrcf	??_CANSetFilter+1,f,c
  3712  0039E6  3231               	rrcf	??_CANSetFilter,f,c
  3713  0039E8                     u2070:
  3714  0039E8  2EE8               	decfsz	wreg,f,c
  3715  0039EA  D7F9               	goto	u2075
  3716  0039EC  C031  F036         	movff	??_CANSetFilter,CANSetFilter@tamp
  3717  0039F0  C032  F037         	movff	??_CANSetFilter+1,CANSetFilter@tamp+1
  3718  0039F4  C033  F038         	movff	??_CANSetFilter+2,CANSetFilter@tamp+2
  3719  0039F8  C034  F039         	movff	??_CANSetFilter+3,CANSetFilter@tamp+3
  3720                           
  3721                           ; BSR set to: 15
  3722                           ;inc\CANlib.h: 822: tamp = tamp & 0x000000FF;
  3723  0039FC  5036               	movf	CANSetFilter@tamp,w,c
  3724  0039FE  6E36               	movwf	CANSetFilter@tamp,c
  3725  003A00  6A37               	clrf	CANSetFilter@tamp+1,c
  3726  003A02  6A38               	clrf	CANSetFilter@tamp+2,c
  3727  003A04  6A39               	clrf	CANSetFilter@tamp+3,c
  3728                           
  3729                           ; BSR set to: 15
  3730                           ;inc\CANlib.h: 823: RXF5SIDH = (unsigned char) tamp;
  3731  003A06  C036  FF14         	movff	CANSetFilter@tamp,3860	;volatile
  3732                           
  3733                           ; BSR set to: 15
  3734                           ;inc\CANlib.h: 825: tamp = filter & 0x00000007;
  3735  003A0A  0E07               	movlw	7
  3736  003A0C  142C               	andwf	CANSetFilter@filter,w,c
  3737  003A0E  6E36               	movwf	CANSetFilter@tamp,c
  3738  003A10  0E00               	movlw	0
  3739  003A12  142D               	andwf	CANSetFilter@filter+1,w,c
  3740  003A14  6E37               	movwf	CANSetFilter@tamp+1,c
  3741  003A16  0E00               	movlw	0
  3742  003A18  142E               	andwf	CANSetFilter@filter+2,w,c
  3743  003A1A  6E38               	movwf	CANSetFilter@tamp+2,c
  3744  003A1C  0E00               	movlw	0
  3745  003A1E  142F               	andwf	CANSetFilter@filter+3,w,c
  3746  003A20  6E39               	movwf	CANSetFilter@tamp+3,c
  3747                           
  3748                           ; BSR set to: 15
  3749                           ;inc\CANlib.h: 826: tamp = tamp << 5;
  3750  003A22  C036  F031         	movff	CANSetFilter@tamp,??_CANSetFilter
  3751  003A26  C037  F032         	movff	CANSetFilter@tamp+1,??_CANSetFilter+1
  3752  003A2A  C038  F033         	movff	CANSetFilter@tamp+2,??_CANSetFilter+2
  3753  003A2E  C039  F034         	movff	CANSetFilter@tamp+3,??_CANSetFilter+3
  3754  003A32  0E05               	movlw	5
  3755  003A34                     u2085:
  3756  003A34  90D8               	bcf	status,0,c
  3757  003A36  3631               	rlcf	??_CANSetFilter,f,c
  3758  003A38  3632               	rlcf	??_CANSetFilter+1,f,c
  3759  003A3A  3633               	rlcf	??_CANSetFilter+2,f,c
  3760  003A3C  3634               	rlcf	??_CANSetFilter+3,f,c
  3761  003A3E  2EE8               	decfsz	wreg,f,c
  3762  003A40  D7F9               	goto	u2085
  3763  003A42  C031  F036         	movff	??_CANSetFilter,CANSetFilter@tamp
  3764  003A46  C032  F037         	movff	??_CANSetFilter+1,CANSetFilter@tamp+1
  3765  003A4A  C033  F038         	movff	??_CANSetFilter+2,CANSetFilter@tamp+2
  3766  003A4E  C034  F039         	movff	??_CANSetFilter+3,CANSetFilter@tamp+3
  3767                           
  3768                           ; BSR set to: 15
  3769                           ;inc\CANlib.h: 827: RXF5SIDL = (unsigned char) tamp;
  3770  003A52  C036  FF15         	movff	CANSetFilter@tamp,3861	;volatile
  3771  003A56                     l2372:
  3772                           
  3773                           ;inc\CANlib.h: 828: }
  3774                           ;inc\CANlib.h: 831: if ((numBuffer ==CAN_FILTER_B1_F1) && (type == CAN_CONFIG_XTD_MSG))
  3775  003A56  5035               	movf	CANSetFilter@numBuffer,w,c
  3776  003A58  A4D8               	btfss	status,2,c
  3777  003A5A  D075               	goto	l2406
  3778  003A5C  0EF7               	movlw	247
  3779  003A5E  1830               	xorwf	CANSetFilter@type,w,c
  3780  003A60  A4D8               	btfss	status,2,c
  3781  003A62  D071               	goto	l2406
  3782                           
  3783                           ;inc\CANlib.h: 832: {
  3784                           ;inc\CANlib.h: 833: RXF0SIDLbits.EXIDEN = 0x01;
  3785  003A64  010F               	movlb	15	; () banked
  3786  003A66  8701               	bsf	1,3,b	;volatile
  3787                           
  3788                           ; BSR set to: 15
  3789                           ;inc\CANlib.h: 835: tamp = filter & 0x000000FF;
  3790  003A68  502C               	movf	CANSetFilter@filter,w,c
  3791  003A6A  6E36               	movwf	CANSetFilter@tamp,c
  3792  003A6C  6A37               	clrf	CANSetFilter@tamp+1,c
  3793  003A6E  6A38               	clrf	CANSetFilter@tamp+2,c
  3794  003A70  6A39               	clrf	CANSetFilter@tamp+3,c
  3795                           
  3796                           ; BSR set to: 15
  3797                           ;inc\CANlib.h: 836: RXF0EIDL = (unsigned char) tamp;
  3798  003A72  C036  FF03         	movff	CANSetFilter@tamp,3843	;volatile
  3799                           
  3800                           ; BSR set to: 15
  3801                           ;inc\CANlib.h: 838: tamp = filter & 0x0000FF00;
  3802  003A76  0E00               	movlw	0
  3803  003A78  142C               	andwf	CANSetFilter@filter,w,c
  3804  003A7A  6E36               	movwf	CANSetFilter@tamp,c
  3805  003A7C  0EFF               	movlw	255
  3806  003A7E  142D               	andwf	CANSetFilter@filter+1,w,c
  3807  003A80  6E37               	movwf	CANSetFilter@tamp+1,c
  3808  003A82  0E00               	movlw	0
  3809  003A84  142E               	andwf	CANSetFilter@filter+2,w,c
  3810  003A86  6E38               	movwf	CANSetFilter@tamp+2,c
  3811  003A88  0E00               	movlw	0
  3812  003A8A  142F               	andwf	CANSetFilter@filter+3,w,c
  3813  003A8C  6E39               	movwf	CANSetFilter@tamp+3,c
  3814                           
  3815                           ; BSR set to: 15
  3816                           ;inc\CANlib.h: 839: tamp = tamp >> 8;
  3817  003A8E  C036  F031         	movff	CANSetFilter@tamp,??_CANSetFilter
  3818  003A92  C037  F032         	movff	CANSetFilter@tamp+1,??_CANSetFilter+1
  3819  003A96  C038  F033         	movff	CANSetFilter@tamp+2,??_CANSetFilter+2
  3820  003A9A  C039  F034         	movff	CANSetFilter@tamp+3,??_CANSetFilter+3
  3821  003A9E  C032  F031         	movff	??_CANSetFilter+1,??_CANSetFilter
  3822  003AA2  C033  F032         	movff	??_CANSetFilter+2,??_CANSetFilter+1
  3823  003AA6  C034  F033         	movff	??_CANSetFilter+3,??_CANSetFilter+2
  3824  003AAA  6A34               	clrf	??_CANSetFilter+3,c
  3825  003AAC  C031  F036         	movff	??_CANSetFilter,CANSetFilter@tamp
  3826  003AB0  C032  F037         	movff	??_CANSetFilter+1,CANSetFilter@tamp+1
  3827  003AB4  C033  F038         	movff	??_CANSetFilter+2,CANSetFilter@tamp+2
  3828  003AB8  C034  F039         	movff	??_CANSetFilter+3,CANSetFilter@tamp+3
  3829                           
  3830                           ; BSR set to: 15
  3831                           ;inc\CANlib.h: 840: RXF0EIDH = (unsigned char) tamp;
  3832  003ABC  C036  FF02         	movff	CANSetFilter@tamp,3842	;volatile
  3833                           
  3834                           ; BSR set to: 15
  3835                           ;inc\CANlib.h: 842: if (filter & 0x00010000)
  3836  003AC0  A02E               	btfss	CANSetFilter@filter+2,0,c
  3837  003AC2  D003               	goto	l433
  3838                           
  3839                           ; BSR set to: 15
  3840                           ;inc\CANlib.h: 843: RXF0SIDLbits.EID16 = 0x01;
  3841  003AC4  010F               	movlb	15	; () banked
  3842  003AC6  8101               	bsf	1,0,b	;volatile
  3843  003AC8  D002               	goto	l434
  3844  003ACA                     l433:
  3845                           
  3846                           ; BSR set to: 15
  3847                           ;inc\CANlib.h: 844: else
  3848                           ;inc\CANlib.h: 845: RXF0SIDLbits.EID16 = 0x00;
  3849  003ACA  010F               	movlb	15	; () banked
  3850  003ACC  9101               	bcf	1,0,b	;volatile
  3851  003ACE                     l434:
  3852                           
  3853                           ; BSR set to: 15
  3854                           ;inc\CANlib.h: 847: if (filter & 0x00020000)
  3855  003ACE  A22E               	btfss	CANSetFilter@filter+2,1,c
  3856  003AD0  D003               	goto	l435
  3857                           
  3858                           ; BSR set to: 15
  3859                           ;inc\CANlib.h: 848: RXF0SIDLbits.EID17 = 0x01;
  3860  003AD2  010F               	movlb	15	; () banked
  3861  003AD4  8301               	bsf	1,1,b	;volatile
  3862  003AD6  D002               	goto	l436
  3863  003AD8                     l435:
  3864                           
  3865                           ; BSR set to: 15
  3866                           ;inc\CANlib.h: 849: else
  3867                           ;inc\CANlib.h: 850: RXF0SIDLbits.EID17 = 0x00;
  3868  003AD8  010F               	movlb	15	; () banked
  3869  003ADA  9301               	bcf	1,1,b	;volatile
  3870  003ADC                     l436:
  3871                           
  3872                           ; BSR set to: 15
  3873                           ;inc\CANlib.h: 852: if (filter & 0x00040000)
  3874  003ADC  A42E               	btfss	CANSetFilter@filter+2,2,c
  3875  003ADE  D003               	goto	l437
  3876                           
  3877                           ; BSR set to: 15
  3878                           ;inc\CANlib.h: 853: RXF0SIDLbits.SID0 = 0x01;
  3879  003AE0  010F               	movlb	15	; () banked
  3880  003AE2  8B01               	bsf	1,5,b	;volatile
  3881  003AE4  D002               	goto	l438
  3882  003AE6                     l437:
  3883                           
  3884                           ; BSR set to: 15
  3885                           ;inc\CANlib.h: 854: else
  3886                           ;inc\CANlib.h: 855: RXF0SIDLbits.SID0 = 0x00;
  3887  003AE6  010F               	movlb	15	; () banked
  3888  003AE8  9B01               	bcf	1,5,b	;volatile
  3889  003AEA                     l438:
  3890                           
  3891                           ; BSR set to: 15
  3892                           ;inc\CANlib.h: 857: if (filter & 0x00080000)
  3893  003AEA  A62E               	btfss	CANSetFilter@filter+2,3,c
  3894  003AEC  D003               	goto	l439
  3895                           
  3896                           ; BSR set to: 15
  3897                           ;inc\CANlib.h: 858: RXF0SIDLbits.SID1 = 0x01;
  3898  003AEE  010F               	movlb	15	; () banked
  3899  003AF0  8D01               	bsf	1,6,b	;volatile
  3900  003AF2  D002               	goto	l440
  3901  003AF4                     l439:
  3902                           
  3903                           ; BSR set to: 15
  3904                           ;inc\CANlib.h: 859: else
  3905                           ;inc\CANlib.h: 860: RXF0SIDLbits.SID1 = 0x00;
  3906  003AF4  010F               	movlb	15	; () banked
  3907  003AF6  9D01               	bcf	1,6,b	;volatile
  3908  003AF8                     l440:
  3909                           
  3910                           ; BSR set to: 15
  3911                           ;inc\CANlib.h: 862: if (filter & 0x00100000)
  3912  003AF8  A82E               	btfss	CANSetFilter@filter+2,4,c
  3913  003AFA  D003               	goto	l441
  3914                           
  3915                           ; BSR set to: 15
  3916                           ;inc\CANlib.h: 863: RXF0SIDLbits.SID2 = 0x01 ;
  3917  003AFC  010F               	movlb	15	; () banked
  3918  003AFE  8F01               	bsf	1,7,b	;volatile
  3919  003B00  D002               	goto	l2400
  3920  003B02                     l441:
  3921                           
  3922                           ; BSR set to: 15
  3923                           ;inc\CANlib.h: 864: else
  3924                           ;inc\CANlib.h: 865: RXF0SIDLbits.SID2 = 0x00 ;
  3925  003B02  010F               	movlb	15	; () banked
  3926  003B04  9F01               	bcf	1,7,b	;volatile
  3927  003B06                     l2400:
  3928                           
  3929                           ; BSR set to: 15
  3930                           ;inc\CANlib.h: 867: tamp = (filter >> 21);
  3931  003B06  C02C  F031         	movff	CANSetFilter@filter,??_CANSetFilter
  3932  003B0A  C02D  F032         	movff	CANSetFilter@filter+1,??_CANSetFilter+1
  3933  003B0E  C02E  F033         	movff	CANSetFilter@filter+2,??_CANSetFilter+2
  3934  003B12  C02F  F034         	movff	CANSetFilter@filter+3,??_CANSetFilter+3
  3935  003B16  0E16               	movlw	22
  3936  003B18  D005               	goto	u2160
  3937  003B1A                     u2165:
  3938  003B1A  90D8               	bcf	status,0,c
  3939  003B1C  3234               	rrcf	??_CANSetFilter+3,f,c
  3940  003B1E  3233               	rrcf	??_CANSetFilter+2,f,c
  3941  003B20  3232               	rrcf	??_CANSetFilter+1,f,c
  3942  003B22  3231               	rrcf	??_CANSetFilter,f,c
  3943  003B24                     u2160:
  3944  003B24  2EE8               	decfsz	wreg,f,c
  3945  003B26  D7F9               	goto	u2165
  3946  003B28  C031  F036         	movff	??_CANSetFilter,CANSetFilter@tamp
  3947  003B2C  C032  F037         	movff	??_CANSetFilter+1,CANSetFilter@tamp+1
  3948  003B30  C033  F038         	movff	??_CANSetFilter+2,CANSetFilter@tamp+2
  3949  003B34  C034  F039         	movff	??_CANSetFilter+3,CANSetFilter@tamp+3
  3950                           
  3951                           ; BSR set to: 15
  3952                           ;inc\CANlib.h: 868: tamp = tamp & 0x000000FF;
  3953  003B38  5036               	movf	CANSetFilter@tamp,w,c
  3954  003B3A  6E36               	movwf	CANSetFilter@tamp,c
  3955  003B3C  6A37               	clrf	CANSetFilter@tamp+1,c
  3956  003B3E  6A38               	clrf	CANSetFilter@tamp+2,c
  3957  003B40  6A39               	clrf	CANSetFilter@tamp+3,c
  3958                           
  3959                           ; BSR set to: 15
  3960                           ;inc\CANlib.h: 869: RXF0SIDH = (unsigned char) tamp;
  3961  003B42  C036  FF00         	movff	CANSetFilter@tamp,3840	;volatile
  3962  003B46                     l2406:
  3963                           
  3964                           ;inc\CANlib.h: 870: }
  3965                           ;inc\CANlib.h: 872: if ((numBuffer ==CAN_FILTER_B1_F2) && (type == CAN_CONFIG_XTD_MSG))
  3966  003B46  0435               	decf	CANSetFilter@numBuffer,w,c
  3967  003B48  A4D8               	btfss	status,2,c
  3968  003B4A  D075               	goto	l2440
  3969  003B4C  0EF7               	movlw	247
  3970  003B4E  1830               	xorwf	CANSetFilter@type,w,c
  3971  003B50  A4D8               	btfss	status,2,c
  3972  003B52  D071               	goto	l2440
  3973                           
  3974                           ;inc\CANlib.h: 873: {
  3975                           ;inc\CANlib.h: 874: RXF1SIDLbits.EXIDEN = 0x01;
  3976  003B54  010F               	movlb	15	; () banked
  3977  003B56  8705               	bsf	5,3,b	;volatile
  3978                           
  3979                           ; BSR set to: 15
  3980                           ;inc\CANlib.h: 876: tamp = filter & 0x000000FF;
  3981  003B58  502C               	movf	CANSetFilter@filter,w,c
  3982  003B5A  6E36               	movwf	CANSetFilter@tamp,c
  3983  003B5C  6A37               	clrf	CANSetFilter@tamp+1,c
  3984  003B5E  6A38               	clrf	CANSetFilter@tamp+2,c
  3985  003B60  6A39               	clrf	CANSetFilter@tamp+3,c
  3986                           
  3987                           ; BSR set to: 15
  3988                           ;inc\CANlib.h: 877: RXF1EIDL = (unsigned char) tamp;
  3989  003B62  C036  FF07         	movff	CANSetFilter@tamp,3847	;volatile
  3990                           
  3991                           ; BSR set to: 15
  3992                           ;inc\CANlib.h: 879: tamp = filter & 0x0000FF00;
  3993  003B66  0E00               	movlw	0
  3994  003B68  142C               	andwf	CANSetFilter@filter,w,c
  3995  003B6A  6E36               	movwf	CANSetFilter@tamp,c
  3996  003B6C  0EFF               	movlw	255
  3997  003B6E  142D               	andwf	CANSetFilter@filter+1,w,c
  3998  003B70  6E37               	movwf	CANSetFilter@tamp+1,c
  3999  003B72  0E00               	movlw	0
  4000  003B74  142E               	andwf	CANSetFilter@filter+2,w,c
  4001  003B76  6E38               	movwf	CANSetFilter@tamp+2,c
  4002  003B78  0E00               	movlw	0
  4003  003B7A  142F               	andwf	CANSetFilter@filter+3,w,c
  4004  003B7C  6E39               	movwf	CANSetFilter@tamp+3,c
  4005                           
  4006                           ; BSR set to: 15
  4007                           ;inc\CANlib.h: 880: tamp = tamp >> 8;
  4008  003B7E  C036  F031         	movff	CANSetFilter@tamp,??_CANSetFilter
  4009  003B82  C037  F032         	movff	CANSetFilter@tamp+1,??_CANSetFilter+1
  4010  003B86  C038  F033         	movff	CANSetFilter@tamp+2,??_CANSetFilter+2
  4011  003B8A  C039  F034         	movff	CANSetFilter@tamp+3,??_CANSetFilter+3
  4012  003B8E  C032  F031         	movff	??_CANSetFilter+1,??_CANSetFilter
  4013  003B92  C033  F032         	movff	??_CANSetFilter+2,??_CANSetFilter+1
  4014  003B96  C034  F033         	movff	??_CANSetFilter+3,??_CANSetFilter+2
  4015  003B9A  6A34               	clrf	??_CANSetFilter+3,c
  4016  003B9C  C031  F036         	movff	??_CANSetFilter,CANSetFilter@tamp
  4017  003BA0  C032  F037         	movff	??_CANSetFilter+1,CANSetFilter@tamp+1
  4018  003BA4  C033  F038         	movff	??_CANSetFilter+2,CANSetFilter@tamp+2
  4019  003BA8  C034  F039         	movff	??_CANSetFilter+3,CANSetFilter@tamp+3
  4020                           
  4021                           ; BSR set to: 15
  4022                           ;inc\CANlib.h: 881: RXF1EIDH = (unsigned char) tamp;
  4023  003BAC  C036  FF06         	movff	CANSetFilter@tamp,3846	;volatile
  4024                           
  4025                           ; BSR set to: 15
  4026                           ;inc\CANlib.h: 883: if (filter & 0x00010000)
  4027  003BB0  A02E               	btfss	CANSetFilter@filter+2,0,c
  4028  003BB2  D003               	goto	l444
  4029                           
  4030                           ; BSR set to: 15
  4031                           ;inc\CANlib.h: 884: RXF1SIDLbits.EID16 = 0x01;
  4032  003BB4  010F               	movlb	15	; () banked
  4033  003BB6  8105               	bsf	5,0,b	;volatile
  4034  003BB8  D002               	goto	l445
  4035  003BBA                     l444:
  4036                           
  4037                           ; BSR set to: 15
  4038                           ;inc\CANlib.h: 885: else
  4039                           ;inc\CANlib.h: 886: RXF1SIDLbits.EID16 = 0x00;
  4040  003BBA  010F               	movlb	15	; () banked
  4041  003BBC  9105               	bcf	5,0,b	;volatile
  4042  003BBE                     l445:
  4043                           
  4044                           ; BSR set to: 15
  4045                           ;inc\CANlib.h: 888: if (filter & 0x00020000)
  4046  003BBE  A22E               	btfss	CANSetFilter@filter+2,1,c
  4047  003BC0  D003               	goto	l446
  4048                           
  4049                           ; BSR set to: 15
  4050                           ;inc\CANlib.h: 889: RXF1SIDLbits.EID17 = 0x01;
  4051  003BC2  010F               	movlb	15	; () banked
  4052  003BC4  8305               	bsf	5,1,b	;volatile
  4053  003BC6  D002               	goto	l447
  4054  003BC8                     l446:
  4055                           
  4056                           ; BSR set to: 15
  4057                           ;inc\CANlib.h: 890: else
  4058                           ;inc\CANlib.h: 891: RXF1SIDLbits.EID17 = 0x00;
  4059  003BC8  010F               	movlb	15	; () banked
  4060  003BCA  9305               	bcf	5,1,b	;volatile
  4061  003BCC                     l447:
  4062                           
  4063                           ; BSR set to: 15
  4064                           ;inc\CANlib.h: 893: if (filter & 0x00040000)
  4065  003BCC  A42E               	btfss	CANSetFilter@filter+2,2,c
  4066  003BCE  D003               	goto	l448
  4067                           
  4068                           ; BSR set to: 15
  4069                           ;inc\CANlib.h: 894: RXF1SIDLbits.SID0 = 0x01;
  4070  003BD0  010F               	movlb	15	; () banked
  4071  003BD2  8B05               	bsf	5,5,b	;volatile
  4072  003BD4  D002               	goto	l449
  4073  003BD6                     l448:
  4074                           
  4075                           ; BSR set to: 15
  4076                           ;inc\CANlib.h: 895: else
  4077                           ;inc\CANlib.h: 896: RXF1SIDLbits.SID0 = 0x00;
  4078  003BD6  010F               	movlb	15	; () banked
  4079  003BD8  9B05               	bcf	5,5,b	;volatile
  4080  003BDA                     l449:
  4081                           
  4082                           ; BSR set to: 15
  4083                           ;inc\CANlib.h: 898: if (filter & 0x00080000)
  4084  003BDA  A62E               	btfss	CANSetFilter@filter+2,3,c
  4085  003BDC  D003               	goto	l450
  4086                           
  4087                           ; BSR set to: 15
  4088                           ;inc\CANlib.h: 899: RXF1SIDLbits.SID1 = 0x01;
  4089  003BDE  010F               	movlb	15	; () banked
  4090  003BE0  8D05               	bsf	5,6,b	;volatile
  4091  003BE2  D002               	goto	l451
  4092  003BE4                     l450:
  4093                           
  4094                           ; BSR set to: 15
  4095                           ;inc\CANlib.h: 900: else
  4096                           ;inc\CANlib.h: 901: RXF1SIDLbits.SID1 = 0x00;
  4097  003BE4  010F               	movlb	15	; () banked
  4098  003BE6  9D05               	bcf	5,6,b	;volatile
  4099  003BE8                     l451:
  4100                           
  4101                           ; BSR set to: 15
  4102                           ;inc\CANlib.h: 903: if (filter & 0x00100000)
  4103  003BE8  A82E               	btfss	CANSetFilter@filter+2,4,c
  4104  003BEA  D003               	goto	l452
  4105                           
  4106                           ; BSR set to: 15
  4107                           ;inc\CANlib.h: 904: RXF1SIDLbits.SID2 = 0x01 ;
  4108  003BEC  010F               	movlb	15	; () banked
  4109  003BEE  8F05               	bsf	5,7,b	;volatile
  4110  003BF0  D002               	goto	l2434
  4111  003BF2                     l452:
  4112                           
  4113                           ; BSR set to: 15
  4114                           ;inc\CANlib.h: 905: else
  4115                           ;inc\CANlib.h: 906: RXF1SIDLbits.SID2 = 0x00 ;
  4116  003BF2  010F               	movlb	15	; () banked
  4117  003BF4  9F05               	bcf	5,7,b	;volatile
  4118  003BF6                     l2434:
  4119                           
  4120                           ; BSR set to: 15
  4121                           ;inc\CANlib.h: 908: tamp = (filter >> 21);
  4122  003BF6  C02C  F031         	movff	CANSetFilter@filter,??_CANSetFilter
  4123  003BFA  C02D  F032         	movff	CANSetFilter@filter+1,??_CANSetFilter+1
  4124  003BFE  C02E  F033         	movff	CANSetFilter@filter+2,??_CANSetFilter+2
  4125  003C02  C02F  F034         	movff	CANSetFilter@filter+3,??_CANSetFilter+3
  4126  003C06  0E16               	movlw	22
  4127  003C08  D005               	goto	u2240
  4128  003C0A                     u2245:
  4129  003C0A  90D8               	bcf	status,0,c
  4130  003C0C  3234               	rrcf	??_CANSetFilter+3,f,c
  4131  003C0E  3233               	rrcf	??_CANSetFilter+2,f,c
  4132  003C10  3232               	rrcf	??_CANSetFilter+1,f,c
  4133  003C12  3231               	rrcf	??_CANSetFilter,f,c
  4134  003C14                     u2240:
  4135  003C14  2EE8               	decfsz	wreg,f,c
  4136  003C16  D7F9               	goto	u2245
  4137  003C18  C031  F036         	movff	??_CANSetFilter,CANSetFilter@tamp
  4138  003C1C  C032  F037         	movff	??_CANSetFilter+1,CANSetFilter@tamp+1
  4139  003C20  C033  F038         	movff	??_CANSetFilter+2,CANSetFilter@tamp+2
  4140  003C24  C034  F039         	movff	??_CANSetFilter+3,CANSetFilter@tamp+3
  4141                           
  4142                           ; BSR set to: 15
  4143                           ;inc\CANlib.h: 909: tamp = tamp & 0x000000FF;
  4144  003C28  5036               	movf	CANSetFilter@tamp,w,c
  4145  003C2A  6E36               	movwf	CANSetFilter@tamp,c
  4146  003C2C  6A37               	clrf	CANSetFilter@tamp+1,c
  4147  003C2E  6A38               	clrf	CANSetFilter@tamp+2,c
  4148  003C30  6A39               	clrf	CANSetFilter@tamp+3,c
  4149                           
  4150                           ; BSR set to: 15
  4151                           ;inc\CANlib.h: 910: RXF1SIDH = (unsigned char) tamp;
  4152  003C32  C036  FF04         	movff	CANSetFilter@tamp,3844	;volatile
  4153  003C36                     l2440:
  4154                           
  4155                           ;inc\CANlib.h: 911: }
  4156                           ;inc\CANlib.h: 914: if ((numBuffer ==CAN_FILTER_B2_F1) && (type == CAN_CONFIG_XTD_MSG))
  4157  003C36  0E02               	movlw	2
  4158  003C38  1835               	xorwf	CANSetFilter@numBuffer,w,c
  4159  003C3A  A4D8               	btfss	status,2,c
  4160  003C3C  D075               	goto	l2474
  4161  003C3E  0EF7               	movlw	247
  4162  003C40  1830               	xorwf	CANSetFilter@type,w,c
  4163  003C42  A4D8               	btfss	status,2,c
  4164  003C44  D071               	goto	l2474
  4165                           
  4166                           ;inc\CANlib.h: 915: {
  4167                           ;inc\CANlib.h: 916: RXF2SIDLbits.EXIDEN = 0x01;
  4168  003C46  010F               	movlb	15	; () banked
  4169  003C48  8709               	bsf	9,3,b	;volatile
  4170                           
  4171                           ; BSR set to: 15
  4172                           ;inc\CANlib.h: 918: tamp = filter & 0x000000FF;
  4173  003C4A  502C               	movf	CANSetFilter@filter,w,c
  4174  003C4C  6E36               	movwf	CANSetFilter@tamp,c
  4175  003C4E  6A37               	clrf	CANSetFilter@tamp+1,c
  4176  003C50  6A38               	clrf	CANSetFilter@tamp+2,c
  4177  003C52  6A39               	clrf	CANSetFilter@tamp+3,c
  4178                           
  4179                           ; BSR set to: 15
  4180                           ;inc\CANlib.h: 919: RXF2EIDL = (unsigned char) tamp;
  4181  003C54  C036  FF0B         	movff	CANSetFilter@tamp,3851	;volatile
  4182                           
  4183                           ; BSR set to: 15
  4184                           ;inc\CANlib.h: 921: tamp = filter & 0x0000FF00;
  4185  003C58  0E00               	movlw	0
  4186  003C5A  142C               	andwf	CANSetFilter@filter,w,c
  4187  003C5C  6E36               	movwf	CANSetFilter@tamp,c
  4188  003C5E  0EFF               	movlw	255
  4189  003C60  142D               	andwf	CANSetFilter@filter+1,w,c
  4190  003C62  6E37               	movwf	CANSetFilter@tamp+1,c
  4191  003C64  0E00               	movlw	0
  4192  003C66  142E               	andwf	CANSetFilter@filter+2,w,c
  4193  003C68  6E38               	movwf	CANSetFilter@tamp+2,c
  4194  003C6A  0E00               	movlw	0
  4195  003C6C  142F               	andwf	CANSetFilter@filter+3,w,c
  4196  003C6E  6E39               	movwf	CANSetFilter@tamp+3,c
  4197                           
  4198                           ; BSR set to: 15
  4199                           ;inc\CANlib.h: 922: tamp = tamp >> 8;
  4200  003C70  C036  F031         	movff	CANSetFilter@tamp,??_CANSetFilter
  4201  003C74  C037  F032         	movff	CANSetFilter@tamp+1,??_CANSetFilter+1
  4202  003C78  C038  F033         	movff	CANSetFilter@tamp+2,??_CANSetFilter+2
  4203  003C7C  C039  F034         	movff	CANSetFilter@tamp+3,??_CANSetFilter+3
  4204  003C80  C032  F031         	movff	??_CANSetFilter+1,??_CANSetFilter
  4205  003C84  C033  F032         	movff	??_CANSetFilter+2,??_CANSetFilter+1
  4206  003C88  C034  F033         	movff	??_CANSetFilter+3,??_CANSetFilter+2
  4207  003C8C  6A34               	clrf	??_CANSetFilter+3,c
  4208  003C8E  C031  F036         	movff	??_CANSetFilter,CANSetFilter@tamp
  4209  003C92  C032  F037         	movff	??_CANSetFilter+1,CANSetFilter@tamp+1
  4210  003C96  C033  F038         	movff	??_CANSetFilter+2,CANSetFilter@tamp+2
  4211  003C9A  C034  F039         	movff	??_CANSetFilter+3,CANSetFilter@tamp+3
  4212                           
  4213                           ; BSR set to: 15
  4214                           ;inc\CANlib.h: 923: RXF2EIDH = (unsigned char) tamp;
  4215  003C9E  C036  FF0A         	movff	CANSetFilter@tamp,3850	;volatile
  4216                           
  4217                           ; BSR set to: 15
  4218                           ;inc\CANlib.h: 925: if (filter & 0x00010000)
  4219  003CA2  A02E               	btfss	CANSetFilter@filter+2,0,c
  4220  003CA4  D003               	goto	l455
  4221                           
  4222                           ; BSR set to: 15
  4223                           ;inc\CANlib.h: 926: RXF2SIDLbits.EID16 = 0x01;
  4224  003CA6  010F               	movlb	15	; () banked
  4225  003CA8  8109               	bsf	9,0,b	;volatile
  4226  003CAA  D002               	goto	l456
  4227  003CAC                     l455:
  4228                           
  4229                           ; BSR set to: 15
  4230                           ;inc\CANlib.h: 927: else
  4231                           ;inc\CANlib.h: 928: RXF2SIDLbits.EID16 = 0x00;
  4232  003CAC  010F               	movlb	15	; () banked
  4233  003CAE  9109               	bcf	9,0,b	;volatile
  4234  003CB0                     l456:
  4235                           
  4236                           ; BSR set to: 15
  4237                           ;inc\CANlib.h: 930: if (filter & 0x00020000)
  4238  003CB0  A22E               	btfss	CANSetFilter@filter+2,1,c
  4239  003CB2  D003               	goto	l457
  4240                           
  4241                           ; BSR set to: 15
  4242                           ;inc\CANlib.h: 931: RXF2SIDLbits.EID17 = 0x01;
  4243  003CB4  010F               	movlb	15	; () banked
  4244  003CB6  8309               	bsf	9,1,b	;volatile
  4245  003CB8  D002               	goto	l458
  4246  003CBA                     l457:
  4247                           
  4248                           ; BSR set to: 15
  4249                           ;inc\CANlib.h: 932: else
  4250                           ;inc\CANlib.h: 933: RXF2SIDLbits.EID17 = 0x00;
  4251  003CBA  010F               	movlb	15	; () banked
  4252  003CBC  9309               	bcf	9,1,b	;volatile
  4253  003CBE                     l458:
  4254                           
  4255                           ; BSR set to: 15
  4256                           ;inc\CANlib.h: 935: if (filter & 0x00040000)
  4257  003CBE  A42E               	btfss	CANSetFilter@filter+2,2,c
  4258  003CC0  D003               	goto	l459
  4259                           
  4260                           ; BSR set to: 15
  4261                           ;inc\CANlib.h: 936: RXF2SIDLbits.SID0 = 0x01;
  4262  003CC2  010F               	movlb	15	; () banked
  4263  003CC4  8B09               	bsf	9,5,b	;volatile
  4264  003CC6  D002               	goto	l460
  4265  003CC8                     l459:
  4266                           
  4267                           ; BSR set to: 15
  4268                           ;inc\CANlib.h: 937: else
  4269                           ;inc\CANlib.h: 938: RXF2SIDLbits.SID0 = 0x00;
  4270  003CC8  010F               	movlb	15	; () banked
  4271  003CCA  9B09               	bcf	9,5,b	;volatile
  4272  003CCC                     l460:
  4273                           
  4274                           ; BSR set to: 15
  4275                           ;inc\CANlib.h: 940: if (filter & 0x00080000)
  4276  003CCC  A62E               	btfss	CANSetFilter@filter+2,3,c
  4277  003CCE  D003               	goto	l461
  4278                           
  4279                           ; BSR set to: 15
  4280                           ;inc\CANlib.h: 941: RXF2SIDLbits.SID1 = 0x01;
  4281  003CD0  010F               	movlb	15	; () banked
  4282  003CD2  8D09               	bsf	9,6,b	;volatile
  4283  003CD4  D002               	goto	l462
  4284  003CD6                     l461:
  4285                           
  4286                           ; BSR set to: 15
  4287                           ;inc\CANlib.h: 942: else
  4288                           ;inc\CANlib.h: 943: RXF2SIDLbits.SID1 = 0x00;
  4289  003CD6  010F               	movlb	15	; () banked
  4290  003CD8  9D09               	bcf	9,6,b	;volatile
  4291  003CDA                     l462:
  4292                           
  4293                           ; BSR set to: 15
  4294                           ;inc\CANlib.h: 945: if (filter & 0x00100000)
  4295  003CDA  A82E               	btfss	CANSetFilter@filter+2,4,c
  4296  003CDC  D003               	goto	l463
  4297                           
  4298                           ; BSR set to: 15
  4299                           ;inc\CANlib.h: 946: RXF2SIDLbits.SID2 = 0x01 ;
  4300  003CDE  010F               	movlb	15	; () banked
  4301  003CE0  8F09               	bsf	9,7,b	;volatile
  4302  003CE2  D002               	goto	l2468
  4303  003CE4                     l463:
  4304                           
  4305                           ; BSR set to: 15
  4306                           ;inc\CANlib.h: 947: else
  4307                           ;inc\CANlib.h: 948: RXF2SIDLbits.SID2 = 0x00 ;
  4308  003CE4  010F               	movlb	15	; () banked
  4309  003CE6  9F09               	bcf	9,7,b	;volatile
  4310  003CE8                     l2468:
  4311                           
  4312                           ; BSR set to: 15
  4313                           ;inc\CANlib.h: 950: tamp = (filter >> 21);
  4314  003CE8  C02C  F031         	movff	CANSetFilter@filter,??_CANSetFilter
  4315  003CEC  C02D  F032         	movff	CANSetFilter@filter+1,??_CANSetFilter+1
  4316  003CF0  C02E  F033         	movff	CANSetFilter@filter+2,??_CANSetFilter+2
  4317  003CF4  C02F  F034         	movff	CANSetFilter@filter+3,??_CANSetFilter+3
  4318  003CF8  0E16               	movlw	22
  4319  003CFA  D005               	goto	u2320
  4320  003CFC                     u2325:
  4321  003CFC  90D8               	bcf	status,0,c
  4322  003CFE  3234               	rrcf	??_CANSetFilter+3,f,c
  4323  003D00  3233               	rrcf	??_CANSetFilter+2,f,c
  4324  003D02  3232               	rrcf	??_CANSetFilter+1,f,c
  4325  003D04  3231               	rrcf	??_CANSetFilter,f,c
  4326  003D06                     u2320:
  4327  003D06  2EE8               	decfsz	wreg,f,c
  4328  003D08  D7F9               	goto	u2325
  4329  003D0A  C031  F036         	movff	??_CANSetFilter,CANSetFilter@tamp
  4330  003D0E  C032  F037         	movff	??_CANSetFilter+1,CANSetFilter@tamp+1
  4331  003D12  C033  F038         	movff	??_CANSetFilter+2,CANSetFilter@tamp+2
  4332  003D16  C034  F039         	movff	??_CANSetFilter+3,CANSetFilter@tamp+3
  4333                           
  4334                           ; BSR set to: 15
  4335                           ;inc\CANlib.h: 951: tamp = tamp & 0x000000FF;
  4336  003D1A  5036               	movf	CANSetFilter@tamp,w,c
  4337  003D1C  6E36               	movwf	CANSetFilter@tamp,c
  4338  003D1E  6A37               	clrf	CANSetFilter@tamp+1,c
  4339  003D20  6A38               	clrf	CANSetFilter@tamp+2,c
  4340  003D22  6A39               	clrf	CANSetFilter@tamp+3,c
  4341                           
  4342                           ; BSR set to: 15
  4343                           ;inc\CANlib.h: 952: RXF2SIDH = (unsigned char) tamp;
  4344  003D24  C036  FF08         	movff	CANSetFilter@tamp,3848	;volatile
  4345  003D28                     l2474:
  4346                           
  4347                           ;inc\CANlib.h: 953: }
  4348                           ;inc\CANlib.h: 955: if ((numBuffer ==CAN_FILTER_B2_F2) && (type == CAN_CONFIG_XTD_MSG))
  4349  003D28  0E03               	movlw	3
  4350  003D2A  1835               	xorwf	CANSetFilter@numBuffer,w,c
  4351  003D2C  A4D8               	btfss	status,2,c
  4352  003D2E  D075               	goto	l2508
  4353  003D30  0EF7               	movlw	247
  4354  003D32  1830               	xorwf	CANSetFilter@type,w,c
  4355  003D34  A4D8               	btfss	status,2,c
  4356  003D36  D071               	goto	l2508
  4357                           
  4358                           ;inc\CANlib.h: 956: {
  4359                           ;inc\CANlib.h: 957: RXF3SIDLbits.EXIDEN = 0x01;
  4360  003D38  010F               	movlb	15	; () banked
  4361  003D3A  870D               	bsf	13,3,b	;volatile
  4362                           
  4363                           ; BSR set to: 15
  4364                           ;inc\CANlib.h: 959: tamp = filter & 0x000000FF;
  4365  003D3C  502C               	movf	CANSetFilter@filter,w,c
  4366  003D3E  6E36               	movwf	CANSetFilter@tamp,c
  4367  003D40  6A37               	clrf	CANSetFilter@tamp+1,c
  4368  003D42  6A38               	clrf	CANSetFilter@tamp+2,c
  4369  003D44  6A39               	clrf	CANSetFilter@tamp+3,c
  4370                           
  4371                           ; BSR set to: 15
  4372                           ;inc\CANlib.h: 960: RXF3EIDL = (unsigned char) tamp;
  4373  003D46  C036  FF0F         	movff	CANSetFilter@tamp,3855	;volatile
  4374                           
  4375                           ; BSR set to: 15
  4376                           ;inc\CANlib.h: 962: tamp = filter & 0x0000FF00;
  4377  003D4A  0E00               	movlw	0
  4378  003D4C  142C               	andwf	CANSetFilter@filter,w,c
  4379  003D4E  6E36               	movwf	CANSetFilter@tamp,c
  4380  003D50  0EFF               	movlw	255
  4381  003D52  142D               	andwf	CANSetFilter@filter+1,w,c
  4382  003D54  6E37               	movwf	CANSetFilter@tamp+1,c
  4383  003D56  0E00               	movlw	0
  4384  003D58  142E               	andwf	CANSetFilter@filter+2,w,c
  4385  003D5A  6E38               	movwf	CANSetFilter@tamp+2,c
  4386  003D5C  0E00               	movlw	0
  4387  003D5E  142F               	andwf	CANSetFilter@filter+3,w,c
  4388  003D60  6E39               	movwf	CANSetFilter@tamp+3,c
  4389                           
  4390                           ; BSR set to: 15
  4391                           ;inc\CANlib.h: 963: tamp = tamp >> 8;
  4392  003D62  C036  F031         	movff	CANSetFilter@tamp,??_CANSetFilter
  4393  003D66  C037  F032         	movff	CANSetFilter@tamp+1,??_CANSetFilter+1
  4394  003D6A  C038  F033         	movff	CANSetFilter@tamp+2,??_CANSetFilter+2
  4395  003D6E  C039  F034         	movff	CANSetFilter@tamp+3,??_CANSetFilter+3
  4396  003D72  C032  F031         	movff	??_CANSetFilter+1,??_CANSetFilter
  4397  003D76  C033  F032         	movff	??_CANSetFilter+2,??_CANSetFilter+1
  4398  003D7A  C034  F033         	movff	??_CANSetFilter+3,??_CANSetFilter+2
  4399  003D7E  6A34               	clrf	??_CANSetFilter+3,c
  4400  003D80  C031  F036         	movff	??_CANSetFilter,CANSetFilter@tamp
  4401  003D84  C032  F037         	movff	??_CANSetFilter+1,CANSetFilter@tamp+1
  4402  003D88  C033  F038         	movff	??_CANSetFilter+2,CANSetFilter@tamp+2
  4403  003D8C  C034  F039         	movff	??_CANSetFilter+3,CANSetFilter@tamp+3
  4404                           
  4405                           ; BSR set to: 15
  4406                           ;inc\CANlib.h: 964: RXF3EIDH = (unsigned char) tamp;
  4407  003D90  C036  FF0E         	movff	CANSetFilter@tamp,3854	;volatile
  4408                           
  4409                           ; BSR set to: 15
  4410                           ;inc\CANlib.h: 966: if (filter & 0x00010000)
  4411  003D94  A02E               	btfss	CANSetFilter@filter+2,0,c
  4412  003D96  D003               	goto	l466
  4413                           
  4414                           ; BSR set to: 15
  4415                           ;inc\CANlib.h: 967: RXF3SIDLbits.EID16 = 0x01;
  4416  003D98  010F               	movlb	15	; () banked
  4417  003D9A  810D               	bsf	13,0,b	;volatile
  4418  003D9C  D002               	goto	l467
  4419  003D9E                     l466:
  4420                           
  4421                           ; BSR set to: 15
  4422                           ;inc\CANlib.h: 968: else
  4423                           ;inc\CANlib.h: 969: RXF3SIDLbits.EID16 = 0x00;
  4424  003D9E  010F               	movlb	15	; () banked
  4425  003DA0  910D               	bcf	13,0,b	;volatile
  4426  003DA2                     l467:
  4427                           
  4428                           ; BSR set to: 15
  4429                           ;inc\CANlib.h: 971: if (filter & 0x00020000)
  4430  003DA2  A22E               	btfss	CANSetFilter@filter+2,1,c
  4431  003DA4  D003               	goto	l468
  4432                           
  4433                           ; BSR set to: 15
  4434                           ;inc\CANlib.h: 972: RXF3SIDLbits.EID17 = 0x01;
  4435  003DA6  010F               	movlb	15	; () banked
  4436  003DA8  830D               	bsf	13,1,b	;volatile
  4437  003DAA  D002               	goto	l469
  4438  003DAC                     l468:
  4439                           
  4440                           ; BSR set to: 15
  4441                           ;inc\CANlib.h: 973: else
  4442                           ;inc\CANlib.h: 974: RXF3SIDLbits.EID17 = 0x00;
  4443  003DAC  010F               	movlb	15	; () banked
  4444  003DAE  930D               	bcf	13,1,b	;volatile
  4445  003DB0                     l469:
  4446                           
  4447                           ; BSR set to: 15
  4448                           ;inc\CANlib.h: 976: if (filter & 0x00040000)
  4449  003DB0  A42E               	btfss	CANSetFilter@filter+2,2,c
  4450  003DB2  D003               	goto	l470
  4451                           
  4452                           ; BSR set to: 15
  4453                           ;inc\CANlib.h: 977: RXF3SIDLbits.SID0 = 0x01;
  4454  003DB4  010F               	movlb	15	; () banked
  4455  003DB6  8B0D               	bsf	13,5,b	;volatile
  4456  003DB8  D002               	goto	l471
  4457  003DBA                     l470:
  4458                           
  4459                           ; BSR set to: 15
  4460                           ;inc\CANlib.h: 978: else
  4461                           ;inc\CANlib.h: 979: RXF3SIDLbits.SID0 = 0x00;
  4462  003DBA  010F               	movlb	15	; () banked
  4463  003DBC  9B0D               	bcf	13,5,b	;volatile
  4464  003DBE                     l471:
  4465                           
  4466                           ; BSR set to: 15
  4467                           ;inc\CANlib.h: 981: if (filter & 0x00080000)
  4468  003DBE  A62E               	btfss	CANSetFilter@filter+2,3,c
  4469  003DC0  D003               	goto	l472
  4470                           
  4471                           ; BSR set to: 15
  4472                           ;inc\CANlib.h: 982: RXF3SIDLbits.SID1 = 0x01;
  4473  003DC2  010F               	movlb	15	; () banked
  4474  003DC4  8D0D               	bsf	13,6,b	;volatile
  4475  003DC6  D002               	goto	l473
  4476  003DC8                     l472:
  4477                           
  4478                           ; BSR set to: 15
  4479                           ;inc\CANlib.h: 983: else
  4480                           ;inc\CANlib.h: 984: RXF3SIDLbits.SID1 = 0x00;
  4481  003DC8  010F               	movlb	15	; () banked
  4482  003DCA  9D0D               	bcf	13,6,b	;volatile
  4483  003DCC                     l473:
  4484                           
  4485                           ; BSR set to: 15
  4486                           ;inc\CANlib.h: 986: if (filter & 0x00100000)
  4487  003DCC  A82E               	btfss	CANSetFilter@filter+2,4,c
  4488  003DCE  D003               	goto	l474
  4489                           
  4490                           ; BSR set to: 15
  4491                           ;inc\CANlib.h: 987: RXF3SIDLbits.SID2 = 0x01 ;
  4492  003DD0  010F               	movlb	15	; () banked
  4493  003DD2  8F0D               	bsf	13,7,b	;volatile
  4494  003DD4  D002               	goto	l2502
  4495  003DD6                     l474:
  4496                           
  4497                           ; BSR set to: 15
  4498                           ;inc\CANlib.h: 988: else
  4499                           ;inc\CANlib.h: 989: RXF3SIDLbits.SID2 = 0x00 ;
  4500  003DD6  010F               	movlb	15	; () banked
  4501  003DD8  9F0D               	bcf	13,7,b	;volatile
  4502  003DDA                     l2502:
  4503                           
  4504                           ; BSR set to: 15
  4505                           ;inc\CANlib.h: 991: tamp = (filter >> 21);
  4506  003DDA  C02C  F031         	movff	CANSetFilter@filter,??_CANSetFilter
  4507  003DDE  C02D  F032         	movff	CANSetFilter@filter+1,??_CANSetFilter+1
  4508  003DE2  C02E  F033         	movff	CANSetFilter@filter+2,??_CANSetFilter+2
  4509  003DE6  C02F  F034         	movff	CANSetFilter@filter+3,??_CANSetFilter+3
  4510  003DEA  0E16               	movlw	22
  4511  003DEC  D005               	goto	u2400
  4512  003DEE                     u2405:
  4513  003DEE  90D8               	bcf	status,0,c
  4514  003DF0  3234               	rrcf	??_CANSetFilter+3,f,c
  4515  003DF2  3233               	rrcf	??_CANSetFilter+2,f,c
  4516  003DF4  3232               	rrcf	??_CANSetFilter+1,f,c
  4517  003DF6  3231               	rrcf	??_CANSetFilter,f,c
  4518  003DF8                     u2400:
  4519  003DF8  2EE8               	decfsz	wreg,f,c
  4520  003DFA  D7F9               	goto	u2405
  4521  003DFC  C031  F036         	movff	??_CANSetFilter,CANSetFilter@tamp
  4522  003E00  C032  F037         	movff	??_CANSetFilter+1,CANSetFilter@tamp+1
  4523  003E04  C033  F038         	movff	??_CANSetFilter+2,CANSetFilter@tamp+2
  4524  003E08  C034  F039         	movff	??_CANSetFilter+3,CANSetFilter@tamp+3
  4525                           
  4526                           ; BSR set to: 15
  4527                           ;inc\CANlib.h: 992: tamp = tamp & 0x000000FF;
  4528  003E0C  5036               	movf	CANSetFilter@tamp,w,c
  4529  003E0E  6E36               	movwf	CANSetFilter@tamp,c
  4530  003E10  6A37               	clrf	CANSetFilter@tamp+1,c
  4531  003E12  6A38               	clrf	CANSetFilter@tamp+2,c
  4532  003E14  6A39               	clrf	CANSetFilter@tamp+3,c
  4533                           
  4534                           ; BSR set to: 15
  4535                           ;inc\CANlib.h: 993: RXF3SIDH = (unsigned char) tamp;
  4536  003E16  C036  FF0C         	movff	CANSetFilter@tamp,3852	;volatile
  4537  003E1A                     l2508:
  4538                           
  4539                           ;inc\CANlib.h: 994: }
  4540                           ;inc\CANlib.h: 996: if ((numBuffer ==CAN_FILTER_B2_F3) && (type == CAN_CONFIG_XTD_MSG))
  4541  003E1A  0E04               	movlw	4
  4542  003E1C  1835               	xorwf	CANSetFilter@numBuffer,w,c
  4543  003E1E  A4D8               	btfss	status,2,c
  4544  003E20  D075               	goto	l2542
  4545  003E22  0EF7               	movlw	247
  4546  003E24  1830               	xorwf	CANSetFilter@type,w,c
  4547  003E26  A4D8               	btfss	status,2,c
  4548  003E28  D071               	goto	l2542
  4549                           
  4550                           ;inc\CANlib.h: 997: {
  4551                           ;inc\CANlib.h: 998: RXF4SIDLbits.EXIDEN = 0x01;
  4552  003E2A  010F               	movlb	15	; () banked
  4553  003E2C  8711               	bsf	17,3,b	;volatile
  4554                           
  4555                           ; BSR set to: 15
  4556                           ;inc\CANlib.h: 1000: tamp = filter & 0x000000FF;
  4557  003E2E  502C               	movf	CANSetFilter@filter,w,c
  4558  003E30  6E36               	movwf	CANSetFilter@tamp,c
  4559  003E32  6A37               	clrf	CANSetFilter@tamp+1,c
  4560  003E34  6A38               	clrf	CANSetFilter@tamp+2,c
  4561  003E36  6A39               	clrf	CANSetFilter@tamp+3,c
  4562                           
  4563                           ; BSR set to: 15
  4564                           ;inc\CANlib.h: 1001: RXF4EIDL = (unsigned char) tamp;
  4565  003E38  C036  FF13         	movff	CANSetFilter@tamp,3859	;volatile
  4566                           
  4567                           ; BSR set to: 15
  4568                           ;inc\CANlib.h: 1003: tamp = filter & 0x0000FF00;
  4569  003E3C  0E00               	movlw	0
  4570  003E3E  142C               	andwf	CANSetFilter@filter,w,c
  4571  003E40  6E36               	movwf	CANSetFilter@tamp,c
  4572  003E42  0EFF               	movlw	255
  4573  003E44  142D               	andwf	CANSetFilter@filter+1,w,c
  4574  003E46  6E37               	movwf	CANSetFilter@tamp+1,c
  4575  003E48  0E00               	movlw	0
  4576  003E4A  142E               	andwf	CANSetFilter@filter+2,w,c
  4577  003E4C  6E38               	movwf	CANSetFilter@tamp+2,c
  4578  003E4E  0E00               	movlw	0
  4579  003E50  142F               	andwf	CANSetFilter@filter+3,w,c
  4580  003E52  6E39               	movwf	CANSetFilter@tamp+3,c
  4581                           
  4582                           ; BSR set to: 15
  4583                           ;inc\CANlib.h: 1004: tamp = tamp >> 8;
  4584  003E54  C036  F031         	movff	CANSetFilter@tamp,??_CANSetFilter
  4585  003E58  C037  F032         	movff	CANSetFilter@tamp+1,??_CANSetFilter+1
  4586  003E5C  C038  F033         	movff	CANSetFilter@tamp+2,??_CANSetFilter+2
  4587  003E60  C039  F034         	movff	CANSetFilter@tamp+3,??_CANSetFilter+3
  4588  003E64  C032  F031         	movff	??_CANSetFilter+1,??_CANSetFilter
  4589  003E68  C033  F032         	movff	??_CANSetFilter+2,??_CANSetFilter+1
  4590  003E6C  C034  F033         	movff	??_CANSetFilter+3,??_CANSetFilter+2
  4591  003E70  6A34               	clrf	??_CANSetFilter+3,c
  4592  003E72  C031  F036         	movff	??_CANSetFilter,CANSetFilter@tamp
  4593  003E76  C032  F037         	movff	??_CANSetFilter+1,CANSetFilter@tamp+1
  4594  003E7A  C033  F038         	movff	??_CANSetFilter+2,CANSetFilter@tamp+2
  4595  003E7E  C034  F039         	movff	??_CANSetFilter+3,CANSetFilter@tamp+3
  4596                           
  4597                           ; BSR set to: 15
  4598                           ;inc\CANlib.h: 1005: RXF4EIDH = (unsigned char) tamp;
  4599  003E82  C036  FF12         	movff	CANSetFilter@tamp,3858	;volatile
  4600                           
  4601                           ; BSR set to: 15
  4602                           ;inc\CANlib.h: 1007: if (filter & 0x00010000)
  4603  003E86  A02E               	btfss	CANSetFilter@filter+2,0,c
  4604  003E88  D003               	goto	l477
  4605                           
  4606                           ; BSR set to: 15
  4607                           ;inc\CANlib.h: 1008: RXF4SIDLbits.EID16 = 0x01;
  4608  003E8A  010F               	movlb	15	; () banked
  4609  003E8C  8111               	bsf	17,0,b	;volatile
  4610  003E8E  D002               	goto	l478
  4611  003E90                     l477:
  4612                           
  4613                           ; BSR set to: 15
  4614                           ;inc\CANlib.h: 1009: else
  4615                           ;inc\CANlib.h: 1010: RXF4SIDLbits.EID16 = 0x00;
  4616  003E90  010F               	movlb	15	; () banked
  4617  003E92  9111               	bcf	17,0,b	;volatile
  4618  003E94                     l478:
  4619                           
  4620                           ; BSR set to: 15
  4621                           ;inc\CANlib.h: 1012: if (filter & 0x00020000)
  4622  003E94  A22E               	btfss	CANSetFilter@filter+2,1,c
  4623  003E96  D003               	goto	l479
  4624                           
  4625                           ; BSR set to: 15
  4626                           ;inc\CANlib.h: 1013: RXF4SIDLbits.EID17 = 0x01;
  4627  003E98  010F               	movlb	15	; () banked
  4628  003E9A  8311               	bsf	17,1,b	;volatile
  4629  003E9C  D002               	goto	l480
  4630  003E9E                     l479:
  4631                           
  4632                           ; BSR set to: 15
  4633                           ;inc\CANlib.h: 1014: else
  4634                           ;inc\CANlib.h: 1015: RXF4SIDLbits.EID17 = 0x00;
  4635  003E9E  010F               	movlb	15	; () banked
  4636  003EA0  9311               	bcf	17,1,b	;volatile
  4637  003EA2                     l480:
  4638                           
  4639                           ; BSR set to: 15
  4640                           ;inc\CANlib.h: 1017: if (filter & 0x00040000)
  4641  003EA2  A42E               	btfss	CANSetFilter@filter+2,2,c
  4642  003EA4  D003               	goto	l481
  4643                           
  4644                           ; BSR set to: 15
  4645                           ;inc\CANlib.h: 1018: RXF4SIDLbits.SID0 = 0x01;
  4646  003EA6  010F               	movlb	15	; () banked
  4647  003EA8  8B11               	bsf	17,5,b	;volatile
  4648  003EAA  D002               	goto	l482
  4649  003EAC                     l481:
  4650                           
  4651                           ; BSR set to: 15
  4652                           ;inc\CANlib.h: 1019: else
  4653                           ;inc\CANlib.h: 1020: RXF4SIDLbits.SID0 = 0x00;
  4654  003EAC  010F               	movlb	15	; () banked
  4655  003EAE  9B11               	bcf	17,5,b	;volatile
  4656  003EB0                     l482:
  4657                           
  4658                           ; BSR set to: 15
  4659                           ;inc\CANlib.h: 1022: if (filter & 0x00080000)
  4660  003EB0  A62E               	btfss	CANSetFilter@filter+2,3,c
  4661  003EB2  D003               	goto	l483
  4662                           
  4663                           ; BSR set to: 15
  4664                           ;inc\CANlib.h: 1023: RXF4SIDLbits.SID1 = 0x01;
  4665  003EB4  010F               	movlb	15	; () banked
  4666  003EB6  8D11               	bsf	17,6,b	;volatile
  4667  003EB8  D002               	goto	l484
  4668  003EBA                     l483:
  4669                           
  4670                           ; BSR set to: 15
  4671                           ;inc\CANlib.h: 1024: else
  4672                           ;inc\CANlib.h: 1025: RXF4SIDLbits.SID1 = 0x00;
  4673  003EBA  010F               	movlb	15	; () banked
  4674  003EBC  9D11               	bcf	17,6,b	;volatile
  4675  003EBE                     l484:
  4676                           
  4677                           ; BSR set to: 15
  4678                           ;inc\CANlib.h: 1027: if (filter & 0x00100000)
  4679  003EBE  A82E               	btfss	CANSetFilter@filter+2,4,c
  4680  003EC0  D003               	goto	l485
  4681                           
  4682                           ; BSR set to: 15
  4683                           ;inc\CANlib.h: 1028: RXF4SIDLbits.SID2 = 0x01 ;
  4684  003EC2  010F               	movlb	15	; () banked
  4685  003EC4  8F11               	bsf	17,7,b	;volatile
  4686  003EC6  D002               	goto	l2536
  4687  003EC8                     l485:
  4688                           
  4689                           ; BSR set to: 15
  4690                           ;inc\CANlib.h: 1029: else
  4691                           ;inc\CANlib.h: 1030: RXF4SIDLbits.SID2 = 0x00 ;
  4692  003EC8  010F               	movlb	15	; () banked
  4693  003ECA  9F11               	bcf	17,7,b	;volatile
  4694  003ECC                     l2536:
  4695                           
  4696                           ; BSR set to: 15
  4697                           ;inc\CANlib.h: 1032: tamp = (filter >> 21);
  4698  003ECC  C02C  F031         	movff	CANSetFilter@filter,??_CANSetFilter
  4699  003ED0  C02D  F032         	movff	CANSetFilter@filter+1,??_CANSetFilter+1
  4700  003ED4  C02E  F033         	movff	CANSetFilter@filter+2,??_CANSetFilter+2
  4701  003ED8  C02F  F034         	movff	CANSetFilter@filter+3,??_CANSetFilter+3
  4702  003EDC  0E16               	movlw	22
  4703  003EDE  D005               	goto	u2480
  4704  003EE0                     u2485:
  4705  003EE0  90D8               	bcf	status,0,c
  4706  003EE2  3234               	rrcf	??_CANSetFilter+3,f,c
  4707  003EE4  3233               	rrcf	??_CANSetFilter+2,f,c
  4708  003EE6  3232               	rrcf	??_CANSetFilter+1,f,c
  4709  003EE8  3231               	rrcf	??_CANSetFilter,f,c
  4710  003EEA                     u2480:
  4711  003EEA  2EE8               	decfsz	wreg,f,c
  4712  003EEC  D7F9               	goto	u2485
  4713  003EEE  C031  F036         	movff	??_CANSetFilter,CANSetFilter@tamp
  4714  003EF2  C032  F037         	movff	??_CANSetFilter+1,CANSetFilter@tamp+1
  4715  003EF6  C033  F038         	movff	??_CANSetFilter+2,CANSetFilter@tamp+2
  4716  003EFA  C034  F039         	movff	??_CANSetFilter+3,CANSetFilter@tamp+3
  4717                           
  4718                           ; BSR set to: 15
  4719                           ;inc\CANlib.h: 1033: tamp = tamp & 0x000000FF;
  4720  003EFE  5036               	movf	CANSetFilter@tamp,w,c
  4721  003F00  6E36               	movwf	CANSetFilter@tamp,c
  4722  003F02  6A37               	clrf	CANSetFilter@tamp+1,c
  4723  003F04  6A38               	clrf	CANSetFilter@tamp+2,c
  4724  003F06  6A39               	clrf	CANSetFilter@tamp+3,c
  4725                           
  4726                           ; BSR set to: 15
  4727                           ;inc\CANlib.h: 1034: RXF4SIDH = (unsigned char) tamp;
  4728  003F08  C036  FF10         	movff	CANSetFilter@tamp,3856	;volatile
  4729  003F0C                     l2542:
  4730                           
  4731                           ;inc\CANlib.h: 1035: }
  4732                           ;inc\CANlib.h: 1037: if ((numBuffer ==CAN_FILTER_B2_F4) && (type == CAN_CONFIG_XTD_MSG))
  4733  003F0C  0E05               	movlw	5
  4734  003F0E  1835               	xorwf	CANSetFilter@numBuffer,w,c
  4735  003F10  A4D8               	btfss	status,2,c
  4736  003F12  0012               	return	
  4737  003F14  0EF7               	movlw	247
  4738  003F16  1830               	xorwf	CANSetFilter@type,w,c
  4739  003F18  A4D8               	btfss	status,2,c
  4740  003F1A  0012               	return	
  4741                           
  4742                           ;inc\CANlib.h: 1038: {
  4743                           ;inc\CANlib.h: 1039: RXF5SIDLbits.EXIDEN = 0x01;
  4744  003F1C  010F               	movlb	15	; () banked
  4745  003F1E  8715               	bsf	21,3,b	;volatile
  4746                           
  4747                           ; BSR set to: 15
  4748                           ;inc\CANlib.h: 1041: tamp = filter & 0x000000FF;
  4749  003F20  502C               	movf	CANSetFilter@filter,w,c
  4750  003F22  6E36               	movwf	CANSetFilter@tamp,c
  4751  003F24  6A37               	clrf	CANSetFilter@tamp+1,c
  4752  003F26  6A38               	clrf	CANSetFilter@tamp+2,c
  4753  003F28  6A39               	clrf	CANSetFilter@tamp+3,c
  4754                           
  4755                           ; BSR set to: 15
  4756                           ;inc\CANlib.h: 1042: RXF5EIDL = (unsigned char) tamp;
  4757  003F2A  C036  FF17         	movff	CANSetFilter@tamp,3863	;volatile
  4758                           
  4759                           ; BSR set to: 15
  4760                           ;inc\CANlib.h: 1044: tamp = filter & 0x0000FF00;
  4761  003F2E  0E00               	movlw	0
  4762  003F30  142C               	andwf	CANSetFilter@filter,w,c
  4763  003F32  6E36               	movwf	CANSetFilter@tamp,c
  4764  003F34  0EFF               	movlw	255
  4765  003F36  142D               	andwf	CANSetFilter@filter+1,w,c
  4766  003F38  6E37               	movwf	CANSetFilter@tamp+1,c
  4767  003F3A  0E00               	movlw	0
  4768  003F3C  142E               	andwf	CANSetFilter@filter+2,w,c
  4769  003F3E  6E38               	movwf	CANSetFilter@tamp+2,c
  4770  003F40  0E00               	movlw	0
  4771  003F42  142F               	andwf	CANSetFilter@filter+3,w,c
  4772  003F44  6E39               	movwf	CANSetFilter@tamp+3,c
  4773                           
  4774                           ; BSR set to: 15
  4775                           ;inc\CANlib.h: 1045: tamp = tamp >> 8;
  4776  003F46  C036  F031         	movff	CANSetFilter@tamp,??_CANSetFilter
  4777  003F4A  C037  F032         	movff	CANSetFilter@tamp+1,??_CANSetFilter+1
  4778  003F4E  C038  F033         	movff	CANSetFilter@tamp+2,??_CANSetFilter+2
  4779  003F52  C039  F034         	movff	CANSetFilter@tamp+3,??_CANSetFilter+3
  4780  003F56  C032  F031         	movff	??_CANSetFilter+1,??_CANSetFilter
  4781  003F5A  C033  F032         	movff	??_CANSetFilter+2,??_CANSetFilter+1
  4782  003F5E  C034  F033         	movff	??_CANSetFilter+3,??_CANSetFilter+2
  4783  003F62  6A34               	clrf	??_CANSetFilter+3,c
  4784  003F64  C031  F036         	movff	??_CANSetFilter,CANSetFilter@tamp
  4785  003F68  C032  F037         	movff	??_CANSetFilter+1,CANSetFilter@tamp+1
  4786  003F6C  C033  F038         	movff	??_CANSetFilter+2,CANSetFilter@tamp+2
  4787  003F70  C034  F039         	movff	??_CANSetFilter+3,CANSetFilter@tamp+3
  4788                           
  4789                           ; BSR set to: 15
  4790                           ;inc\CANlib.h: 1046: RXF5EIDH = (unsigned char) tamp;
  4791  003F74  C036  FF16         	movff	CANSetFilter@tamp,3862	;volatile
  4792                           
  4793                           ; BSR set to: 15
  4794                           ;inc\CANlib.h: 1048: if (filter & 0x00010000)
  4795  003F78  A02E               	btfss	CANSetFilter@filter+2,0,c
  4796  003F7A  D003               	goto	l488
  4797                           
  4798                           ; BSR set to: 15
  4799                           ;inc\CANlib.h: 1049: RXF5SIDLbits.EID16 = 0x01;
  4800  003F7C  010F               	movlb	15	; () banked
  4801  003F7E  8115               	bsf	21,0,b	;volatile
  4802  003F80  D002               	goto	l489
  4803  003F82                     l488:
  4804                           
  4805                           ; BSR set to: 15
  4806                           ;inc\CANlib.h: 1050: else
  4807                           ;inc\CANlib.h: 1051: RXF5SIDLbits.EID16 = 0x00;
  4808  003F82  010F               	movlb	15	; () banked
  4809  003F84  9115               	bcf	21,0,b	;volatile
  4810  003F86                     l489:
  4811                           
  4812                           ; BSR set to: 15
  4813                           ;inc\CANlib.h: 1053: if (filter & 0x00020000)
  4814  003F86  A22E               	btfss	CANSetFilter@filter+2,1,c
  4815  003F88  D003               	goto	l490
  4816                           
  4817                           ; BSR set to: 15
  4818                           ;inc\CANlib.h: 1054: RXF5SIDLbits.EID17 = 0x01;
  4819  003F8A  010F               	movlb	15	; () banked
  4820  003F8C  8315               	bsf	21,1,b	;volatile
  4821  003F8E  D002               	goto	l491
  4822  003F90                     l490:
  4823                           
  4824                           ; BSR set to: 15
  4825                           ;inc\CANlib.h: 1055: else
  4826                           ;inc\CANlib.h: 1056: RXF5SIDLbits.EID17 = 0x00;
  4827  003F90  010F               	movlb	15	; () banked
  4828  003F92  9315               	bcf	21,1,b	;volatile
  4829  003F94                     l491:
  4830                           
  4831                           ; BSR set to: 15
  4832                           ;inc\CANlib.h: 1058: if (filter & 0x00040000)
  4833  003F94  A42E               	btfss	CANSetFilter@filter+2,2,c
  4834  003F96  D003               	goto	l492
  4835                           
  4836                           ; BSR set to: 15
  4837                           ;inc\CANlib.h: 1059: RXF5SIDLbits.SID0 = 0x01;
  4838  003F98  010F               	movlb	15	; () banked
  4839  003F9A  8B15               	bsf	21,5,b	;volatile
  4840  003F9C  D002               	goto	l493
  4841  003F9E                     l492:
  4842                           
  4843                           ; BSR set to: 15
  4844                           ;inc\CANlib.h: 1060: else
  4845                           ;inc\CANlib.h: 1061: RXF5SIDLbits.SID0 = 0x00;
  4846  003F9E  010F               	movlb	15	; () banked
  4847  003FA0  9B15               	bcf	21,5,b	;volatile
  4848  003FA2                     l493:
  4849                           
  4850                           ; BSR set to: 15
  4851                           ;inc\CANlib.h: 1063: if (filter & 0x00080000)
  4852  003FA2  A62E               	btfss	CANSetFilter@filter+2,3,c
  4853  003FA4  D003               	goto	l494
  4854                           
  4855                           ; BSR set to: 15
  4856                           ;inc\CANlib.h: 1064: RXF5SIDLbits.SID1 = 0x01;
  4857  003FA6  010F               	movlb	15	; () banked
  4858  003FA8  8D15               	bsf	21,6,b	;volatile
  4859  003FAA  D002               	goto	l495
  4860  003FAC                     l494:
  4861                           
  4862                           ; BSR set to: 15
  4863                           ;inc\CANlib.h: 1065: else
  4864                           ;inc\CANlib.h: 1066: RXF5SIDLbits.SID1 = 0x00;
  4865  003FAC  010F               	movlb	15	; () banked
  4866  003FAE  9D15               	bcf	21,6,b	;volatile
  4867  003FB0                     l495:
  4868                           
  4869                           ; BSR set to: 15
  4870                           ;inc\CANlib.h: 1068: if (filter & 0x00100000)
  4871  003FB0  A82E               	btfss	CANSetFilter@filter+2,4,c
  4872  003FB2  D003               	goto	l496
  4873                           
  4874                           ; BSR set to: 15
  4875                           ;inc\CANlib.h: 1069: RXF5SIDLbits.SID2 = 0x01 ;
  4876  003FB4  010F               	movlb	15	; () banked
  4877  003FB6  8F15               	bsf	21,7,b	;volatile
  4878  003FB8  D002               	goto	l2570
  4879  003FBA                     l496:
  4880                           
  4881                           ; BSR set to: 15
  4882                           ;inc\CANlib.h: 1070: else
  4883                           ;inc\CANlib.h: 1071: RXF5SIDLbits.SID2 = 0x00 ;
  4884  003FBA  010F               	movlb	15	; () banked
  4885  003FBC  9F15               	bcf	21,7,b	;volatile
  4886  003FBE                     l2570:
  4887                           
  4888                           ; BSR set to: 15
  4889                           ;inc\CANlib.h: 1073: tamp = (filter >> 21);
  4890  003FBE  C02C  F031         	movff	CANSetFilter@filter,??_CANSetFilter
  4891  003FC2  C02D  F032         	movff	CANSetFilter@filter+1,??_CANSetFilter+1
  4892  003FC6  C02E  F033         	movff	CANSetFilter@filter+2,??_CANSetFilter+2
  4893  003FCA  C02F  F034         	movff	CANSetFilter@filter+3,??_CANSetFilter+3
  4894  003FCE  0E16               	movlw	22
  4895  003FD0  D005               	goto	u2560
  4896  003FD2                     u2565:
  4897  003FD2  90D8               	bcf	status,0,c
  4898  003FD4  3234               	rrcf	??_CANSetFilter+3,f,c
  4899  003FD6  3233               	rrcf	??_CANSetFilter+2,f,c
  4900  003FD8  3232               	rrcf	??_CANSetFilter+1,f,c
  4901  003FDA  3231               	rrcf	??_CANSetFilter,f,c
  4902  003FDC                     u2560:
  4903  003FDC  2EE8               	decfsz	wreg,f,c
  4904  003FDE  D7F9               	goto	u2565
  4905  003FE0  C031  F036         	movff	??_CANSetFilter,CANSetFilter@tamp
  4906  003FE4  C032  F037         	movff	??_CANSetFilter+1,CANSetFilter@tamp+1
  4907  003FE8  C033  F038         	movff	??_CANSetFilter+2,CANSetFilter@tamp+2
  4908  003FEC  C034  F039         	movff	??_CANSetFilter+3,CANSetFilter@tamp+3
  4909                           
  4910                           ; BSR set to: 15
  4911                           ;inc\CANlib.h: 1074: tamp = tamp & 0x000000FF;
  4912  003FF0  5036               	movf	CANSetFilter@tamp,w,c
  4913  003FF2  6E36               	movwf	CANSetFilter@tamp,c
  4914  003FF4  6A37               	clrf	CANSetFilter@tamp+1,c
  4915  003FF6  6A38               	clrf	CANSetFilter@tamp+2,c
  4916  003FF8  6A39               	clrf	CANSetFilter@tamp+3,c
  4917                           
  4918                           ; BSR set to: 15
  4919                           ;inc\CANlib.h: 1075: RXF5SIDH = (unsigned char) tamp;
  4920  003FFA  C036  FF14         	movff	CANSetFilter@tamp,3860	;volatile
  4921  003FFE  0012               	return	
  4922  004000                     __end_of_CANSetFilter:
  4923                           	opt stack 0
  4924                           tblptru	equ	0xFF8
  4925                           intcon	equ	0xFF2
  4926                           intcon2	equ	0xFF1
  4927                           postinc0	equ	0xFEE
  4928                           wreg	equ	0xFE8
  4929                           indf2	equ	0xFDF
  4930                           fsr2h	equ	0xFDA
  4931                           fsr2l	equ	0xFD9
  4932                           status	equ	0xFD8
  4933                           
  4934 ;; *************** function _CANOperationMode *****************
  4935 ;; Defined at:
  4936 ;;		line 206 in file "../../../LaurTec_PIC_libraries_v_3.3.0/inc\CANlib.h"
  4937 ;; Parameters:    Size  Location     Type
  4938 ;;  mode            1    wreg     enum E16838
  4939 ;; Auto vars:     Size  Location     Type
  4940 ;;  mode            1    0[COMRAM] enum E16838
  4941 ;; Return value:  Size  Location     Type
  4942 ;;		None               void
  4943 ;; Registers used:
  4944 ;;		wreg, status,2, status,0
  4945 ;; Tracked objects:
  4946 ;;		On entry : 0/0
  4947 ;;		On exit  : 0/0
  4948 ;;		Unchanged: 0/0
  4949 ;; Data sizes:     COMRAM   BANK0   BANK1   BANK2
  4950 ;;      Params:         0       0       0       0
  4951 ;;      Locals:         1       0       0       0
  4952 ;;      Temps:          0       0       0       0
  4953 ;;      Totals:         1       0       0       0
  4954 ;;Total ram usage:        1 bytes
  4955 ;; Hardware stack levels used:    1
  4956 ;; This function calls:
  4957 ;;		Nothing
  4958 ;; This function is called by:
  4959 ;;		_CANInitialize
  4960 ;; This function uses a non-reentrant model
  4961 ;;
  4962                           
  4963                           	psect	text9
  4964  002938                     __ptext9:
  4965                           	opt stack 0
  4966  002938                     _CANOperationMode:
  4967                           	opt stack 28
  4968                           
  4969                           ;incstack = 0
  4970                           ;CANOperationMode@mode stored from wreg
  4971  002938  6E2C               	movwf	CANOperationMode@mode,c
  4972                           
  4973                           ;inc\CANlib.h: 208: CANCON = mode;
  4974  00293A  C02C  FF6F         	movff	CANOperationMode@mode,3951	;volatile
  4975  00293E                     l1176:
  4976  00293E  506E               	movf	3950,w,c	;volatile
  4977  002940  0BE0               	andlw	224
  4978  002942  182C               	xorwf	CANOperationMode@mode,w,c
  4979  002944  B4D8               	btfsc	status,2,c
  4980  002946  0012               	return	
  4981  002948  D7FA               	goto	l1176
  4982  00294A                     __end_of_CANOperationMode:
  4983                           	opt stack 0
  4984  0000                     tblptru	equ	0xFF8
  4985                           intcon	equ	0xFF2
  4986                           intcon2	equ	0xFF1
  4987                           postinc0	equ	0xFEE
  4988                           wreg	equ	0xFE8
  4989                           indf2	equ	0xFDF
  4990                           fsr2h	equ	0xFDA
  4991                           fsr2l	equ	0xFD9
  4992                           status	equ	0xFD8
  4993                           tblptru	equ	0xFF8
  4994                           intcon	equ	0xFF2
  4995                           intcon2	equ	0xFF1
  4996                           postinc0	equ	0xFEE
  4997                           wreg	equ	0xFE8
  4998                           indf2	equ	0xFDF
  4999                           fsr2h	equ	0xFDA
  5000                           fsr2l	equ	0xFD9
  5001                           status	equ	0xFD8
  5002                           
  5003                           	psect	rparam
  5004  0000                     tblptru	equ	0xFF8
  5005                           intcon	equ	0xFF2
  5006                           intcon2	equ	0xFF1
  5007                           postinc0	equ	0xFEE
  5008                           wreg	equ	0xFE8
  5009                           indf2	equ	0xFDF
  5010                           fsr2h	equ	0xFDA
  5011                           fsr2l	equ	0xFD9
  5012                           status	equ	0xFD8


Data Sizes:
    Strings     0
    Constant    0
    Data        0
    BSS         43
    Persistent  0
    Stack       0

Auto Spaces:
    Space          Size  Autos    Used
    COMRAM           95     26      70
    BANK0           160      0       0
    BANK1           256      0       0
    BANK2           256      0       0

Pointer List with Targets:

    CANsendMessage@data	PTR unsigned char  size(2) Largest target is 8
		 -> data_array(COMRAM[8]), 


Critical Paths under _main in COMRAM

    _send_data->_CANsendMessage
    _configurazione_iniziale->_CANInitialize
    _CANInitialize->_CANSetFilter
    _CANInitialize->_CANSetMask

Critical Paths under _main in BANK0

    None.

Critical Paths under _main in BANK1

    None.

Critical Paths under _main in BANK2

    None.

Call Graph Tables:

 ---------------------------------------------------------------------------------
 (Depth) Function   	        Calls       Base Space   Used Autos Params    Refs
 ---------------------------------------------------------------------------------
 (0) _main                                                 0     0      0    8339
            _configurazione_iniziale
                           _delay_ms
                          _send_data
 ---------------------------------------------------------------------------------
 (1) _send_data                                            0     0      0    2419
                       _CANisTxReady
                     _CANsendMessage
                           _delay_ms
 ---------------------------------------------------------------------------------
 (2) _delay_ms                                             1     1      0       0
                                              0 COMRAM     1     1      0
 ---------------------------------------------------------------------------------
 (2) _CANsendMessage                                      16     8      8    2395
                                              0 COMRAM    16     8      8
 ---------------------------------------------------------------------------------
 (2) _CANisTxReady                                         1     1      0      24
                                              0 COMRAM     1     1      0
 ---------------------------------------------------------------------------------
 (1) _configurazione_iniziale                              0     0      0    5920
                      _CANInitialize
 ---------------------------------------------------------------------------------
 (2) _CANInitialize                                       12     7      5    5920
                                             14 COMRAM    12     7      5
                   _CANOperationMode
                       _CANSetFilter
                         _CANSetMask
 ---------------------------------------------------------------------------------
 (3) _CANSetMask                                          14     9      5    1286
                                              0 COMRAM    14     9      5
 ---------------------------------------------------------------------------------
 (3) _CANSetFilter                                        14     9      5    3858
                                              0 COMRAM    14     9      5
 ---------------------------------------------------------------------------------
 (3) _CANOperationMode                                     1     1      0      30
                                              0 COMRAM     1     1      0
 ---------------------------------------------------------------------------------
 Estimated maximum stack depth 3
 ---------------------------------------------------------------------------------

 Call Graph Graphs:

 _main (ROOT)
   _configurazione_iniziale
     _CANInitialize
       _CANOperationMode
       _CANSetFilter
       _CANSetMask
   _delay_ms
   _send_data
     _CANisTxReady
     _CANsendMessage
     _delay_ms

 Address spaces:
Name               Size   Autos  Total    Cost      Usage
BIGRAM             2FF      0       0      10        0.0%
EEDATA             100      0       0       0        0.0%
BITBANK2           100      0       0       7        0.0%
BANK2              100      0       0       8        0.0%
BITBANK1           100      0       0       5        0.0%
BANK1              100      0       0       6        0.0%
BITBANK0            A0      0       0       3        0.0%
BANK0               A0      0       0       4        0.0%
BITCOMRAM           5F      0       1       0        1.1%
COMRAM              5F     1A      46       1       73.7%
BITSFR_3             0      0       0      40        0.0%
SFR_3                0      0       0      40        0.0%
BITSFR_2             0      0       0      40        0.0%
SFR_2                0      0       0      40        0.0%
BITSFR_1             0      0       0      40        0.0%
SFR_1                0      0       0      40        0.0%
BITSFR               0      0       0      40        0.0%
SFR                  0      0       0      40        0.0%
STACK                0      0       0       2        0.0%
NULL                 0      0       0       0        0.0%
ABS                  0      0      46       9        0.0%
DATA                 0      0      46      11        0.0%
CODE                 0      0       0       0        0.0%


Microchip Technology PIC18 Macro Assembler V1.35 build -356382666 
Symbol Table                                                                                   Sun Dec 06 18:35:47 2015

            __end_of_CANSetFilter 4000                                _id 0020  
                     __CFG_BORV$3 000000                      __CFG_CP0$OFF 000000  
                    __CFG_CP1$OFF 000000                       __CFG_OSC$HS 000000  
                             l410 2EE0                               l402 2EA8  
                             l403 2EAC                               l420 2FC4  
                             l404 2EB6                               l340 30B2  
                             l421 2FCE                               l413 2F96  
                             l405 2EBA                               l333 3244  
                             l414 2F9A                               l406 2EC4  
                             l350 325C                               l334 3028  
                             l415 2FA4                               l407 2EC8  
                             l351 332C                               l343 31A0  
                             l335 302C                               l440 3AF8  
                             l416 2FA8                               l408 2ED2  
                             l328 2C22                               l360 33DE  
                             l352 32CA                               l344 31A4  
                             l336 30FC                               l441 3B02  
                             l433 3ACA                               l417 2FB2  
                             l409 2ED6                               l329 2C28  
                             l353 32D2                               l345 31AE  
                             l337 309A                               l450 3BE4  
                             l434 3ACE                               l418 2FB6  
                             l354 32DA                               l338 30A2  
                             l451 3BE8                               l435 3AD8  
                             l419 2FC0                               l363 3488  
                             l355 32E2                               l339 30AA  
                             l460 3CCC                               l452 3BF2  
                             l444 3BBA                               l436 3ADC  
                             l372 3600                               l364 348C  
                             l348 3474                               l461 3CD6  
                             l445 3BBE                               l437 3AE6  
                             l373 3604                               l365 355C  
                             l349 3258                               l470 3DBA  
                             l462 3CDA                               l446 3BC8  
                             l438 3AEA                               l526 297C  
                             l374 360E                               l366 34FA  
                             l358 33D0                               l471 3DBE  
                             l463 3CE4                               l455 3CAC  
                             l447 3BCC                               l439 3AF4  
                             l367 3502                               l359 33D4  
                             l480 3EA2                               l472 3DC8  
                             l456 3CB0                               l448 3BD6  
                             l368 350A                               l481 3EAC  
                             l473 3DCC                               l457 3CBA  
                             l449 3BDA                               l369 3512  
                             l490 3F90                               l482 3EB0  
                             l474 3DD6                               l466 3D9E  
                             l458 3CBE                               l491 3F94  
                             l483 3EBA                               l467 3DA2  
                             l459 3CC8                               l492 3F9E  
                             l484 3EBE                               l468 3DAC  
                             l493 3FA2                               l485 3EC8  
                             l477 3E90                               l469 3DB0  
                             l494 3FAC                               l478 3E94  
                             l495 3FB0                               l479 3E9E  
                             l496 3FBA                               l488 3F82  
                             l489 3F86                      __CFG_CPB$OFF 000000  
                    __CFG_CPD$OFF 000000                               _msg 0001  
                             wreg 000FE8                      __CFG_LVP$OFF 000000  
                    __CFG_WDT$OFF 000000                              l2200 2E38  
                            l2300 37DE                              l1176 293E  
                            l2400 3B06                              l2232 2F24  
                            l2226 2EE4                              l2502 3DDA  
                            l2406 3B46                              l2318 387C  
                            l2440 3C36                              l2336 391A  
                            l2184 2D9E                              l2434 3BF6  
                            l2354 39B8                              l2282 3742  
                            l2258 2FD2                              l2508 3E1A  
                            l2372 3A56                              l2620 2C30  
                            l2542 3F0C                              l2622 2C60  
                            l2614 2C1C                              l2536 3ECC  
                            l2616 2C2A                              l2570 3FBE  
                            l2474 3D28                              l2468 3CE8  
                            l2812 351A                              l2660 30BA  
                            l2832 35F6                              l2736 32EA  
                            l2680 3196                              l2762 33E2  
                            l2756 33C6                              l2940 2ABC  
                            l2838 3612                              l2686 31B2  
                            u2005 38F8                              u2030 394A  
                            u2035 3940                              u2045 3996  
                            _LATA 000F89                              u2070 39E8  
                            _LATB 000F8A                              _LATC 000F8B  
                            u2400 3DF8                              u2320 3D06  
                            u2240 3C14                              u2160 3B24  
                            _LATD 000F8C                              _LATE 000F8D  
                            u2075 39DE                              u3107 2A76  
                            u2405 3DEE                              u2325 3CFC  
                            u2245 3C0A                              u2165 3B1A  
                            u2085 3A34                              u3117 2A84  
                            u1630 2D30                              u3127 2A92  
                            u3047 2A22                              u3137 2AA0  
                            u3057 2A30                              u1635 2D26  
                            u3067 2A3E                              u2700 311E  
                            u1645 2D7C                              u3077 2A4C  
                            u1910 3770                              u1670 2DCA  
                            u3087 2A5A                              u2560 3FDC  
                            u2480 3EEA                              u1840 2FF0  
                            u1760 2F02                              u2705 3114  
                            u3097 2A68                              u1915 3766  
                            u1675 2DC0                              u2715 316A  
                            u2820 3308                              u2565 3FD2  
                            u2485 3EE0                              u1925 37BC  
                            u1845 2FE6                              u1765 2EF8  
                            u1685 2E16                              u1950 380E  
                            u1870 36D4                              u2830 334E  
                            u2825 32FE                              u2690 30D8  
                            u1955 3804                              u1875 36CA  
                            u2835 3344                              u1965 385A  
                            u1885 3720                              u2845 339A  
                            u1990 38AC                              u2950 3538  
                            u2695 30CE                              u2960 357E  
                            u1995 38A2                              u2955 352E  
                            u2965 3574                              u2975 35CA  
             __size_of_CANSetMask 0310                              _main 2AAA  
                            fsr2h 000FDA                              indf2 000FDF  
                            fsr2l 000FD9                              start 0000  
                   __CFG_IESO$OFF 000000                     __CFG_MCLRE$ON 000000  
                    ___param_bank 000010                  _CANOperationMode 2938  
                           ?_main 002C                             _PORTC 000F82  
                           _TRISA 000F92                             _TRISB 000F93  
                           _TRISC 000F94                             _TRISD 000F95  
                           _TRISE 000F96                     __CFG_PWRT$OFF 000000  
                   __CFG_WRT0$OFF 000000                     __CFG_WRT1$OFF 000000  
                  __CFG_EBTR0$OFF 000000                    __CFG_FCMEN$OFF 000000  
                  __CFG_EBTR1$OFF 000000                CANInitialize@flags 003E  
                   __CFG_WRTB$OFF 000000                     __CFG_WRTC$OFF 000000  
                   __CFG_WRTD$OFF 000000                    __CFG_EBTRB$OFF 000000  
                  __pbitbssCOMRAM 0230              __end_of_CANisTxReady 2980  
                           status 000FD8                    __CFG_PBADEN$ON 000000  
                 __initialization 294A                      __end_of_main 2B8E  
                          ??_main 0046                     __activetblptr 000002  
               _CANisTxReady$2592 002C                     _counter_array 0010  
                          _CANCON 000F6F                   __CFG_BBSIZ$1024 000000  
                          _RXB0D0 000F66                            _RXB0D1 000F67  
                          _RXB0D2 000F68                            _RXB0D3 000F69  
                          _RXB0D4 000F6A                            _RXB1D0 000F56  
                          _RXB0D5 000F6B                            _RXB1D1 000F57  
                          _RXB0D6 000F6C                            _RXB1D2 000F58  
                          _RXB0D7 000F6D                            _RXB1D3 000F59  
                          _RXB1D4 000F5A                            _RXB1D5 000F5B  
                          _RXB1D6 000F5C                            _RXB1D7 000F5D  
                          _TXB0D0 000F46                            _TXB0D1 000F47  
                          _TXB0D2 000F48                            _TXB0D3 000F49  
                          _TXB1D0 000F36                            _TXB0D4 000F4A  
                          _TXB1D1 000F37                            _TXB0D5 000F4B  
                          _TXB1D2 000F38                            _TXB0D6 000F4C  
                          _TXB1D3 000F39                            _TXB0D7 000F4D  
                          _TXB2D0 000F26                            _TXB1D4 000F3A  
                          _TXB2D1 000F27                            _TXB1D5 000F3B  
                          _TXB2D2 000F28                            _TXB1D6 000F3C  
                          _TXB2D3 000F29                            _TXB1D7 000F3D  
                          _TXB2D4 000F2A                            _TXB2D5 000F2B  
                          _TXB2D6 000F2C                            _TXB2D7 000F2D  
              CANsendMessage@data 0030                CANsendMessage@tamp 0038  
                __end_of_delay_ms 2AAA             __size_of_CANSetFilter 095C  
                  __CFG_XINST$OFF 000000                    __CFG_STVREN$ON 000000  
                    ??_CANSetMask 0031                            clear_0 2952  
        ?_configurazione_iniziale 002C                   __CFG_BOREN$BOHW 000000  
                          tblptru 000FF8                      _CANSetFilter 36A4  
                      __accesstop 0060           __end_of__initialization 2958  
              __end_of_CANSetMask 3014                     ___rparam_used 000001  
                  __pcstackCOMRAM 002C             CANSetFilter@numBuffer 0035  
           __size_of_CANisTxReady 001E          __end_of_CANOperationMode 294A  
                      _data_array 0024           __size_of_CANsendMessage 0690  
              __size_of_send_data 0040                           _CANSTAT 000F6E  
                    _CANisTxReady 2962                           _BRGCON1 000F70  
                         _BRGCON2 000F71                           _BRGCON3 000F72  
          __size_of_CANInitialize 0176                         ?_delay_ms 002C  
                         _RXB0DLC 000F65                           _RXB1DLC 000F55  
                         _RXB0CON 000F60                           _RXB1CON 000F50  
                         _TXB0DLC 000F45                           _TXB1DLC 000F35  
                         _TXB2DLC 000F25               CANsendMessage@flags 0033  
                         __Hparam 0000                           __Lparam 0000  
            CANInitialize@propSeg 0043                           __pcinit 294A  
                         __ramtop 0300                           __ptext0 2AAA  
                         __ptext1 2980                           __ptext2 2A1C  
                         __ptext3 3014                           __ptext4 2962  
                         __ptext5 29C0                           __ptext6 2B8E  
                         __ptext7 2D04                           __ptext8 36A4  
                         __ptext9 2938                        ??_delay_ms 002C  
            end_of_initialization 2958                 __end_of_send_data 29C0  
                   __Lmediumconst 0000                     _CANInitialize 2B8E  
                         postinc0 000FEE                    CANSetMask@mask 002C  
                  CANSetMask@tamp 0036                    CANSetMask@type 0030  
__size_of_configurazione_iniziale 005C                    _CANsendMessage 3014  
                CANInitialize@BRP 003D                  CANInitialize@SJW 003C  
                  ?_CANInitialize 003A               start_initialization 294A  
             CANSetMask@numBuffer 0035            __end_of_CANsendMessage 36A4  
               ?_CANOperationMode 002C                ??_CANOperationMode 002C  
      CANInitialize@FilterConfig1 0044        CANInitialize@FilterConfig2 0045  
                __CFG_LPT1OSC$OFF 000000            CANInitialize@phaseSeg1 003A  
          CANInitialize@phaseSeg2 003B                       __pbssCOMRAM 0001  
                     _BRGCON2bits 000F71                       _BRGCON3bits 000F72  
               __size_of_delay_ms 008E                   ?_CANsendMessage 002C  
                 ??_CANInitialize 003F                CANSetFilter@filter 002C  
                     _COMSTATbits 000F74           _configurazione_iniziale 29C0  
                        _IPR3bits 000FA5                         _send_data 2980  
                        _PIE3bits 000FA3                          _PIR3bits 000FA4  
                        _RXB0EIDH 000F63                          _RXB0EIDL 000F64  
                        _RXB1EIDH 000F53                          _RXB1EIDL 000F54  
                        _RCONbits 000FD0                  __CFG_WDTPS$32768 000000  
                        _RXB0SIDH 000F61                          _RXB0SIDL 000F62  
                        _RXF0EIDH 000F02                          _RXB1SIDH 000F51  
                        _RXF0EIDL 000F03                          _RXB1SIDL 000F52  
                        _RXF1EIDH 000F06                          _RXF1EIDL 000F07  
                        _RXF2EIDH 000F0A                          _RXF2EIDL 000F0B  
                        _RXF3EIDH 000F0E                          _RXF3EIDL 000F0F  
                        _RXF4EIDH 000F12                          _RXF4EIDL 000F13  
                        _RXF5EIDH 000F16                          _RXF5EIDL 000F17  
                        _RXF0SIDH 000F00                          _RXF0SIDL 000F01  
                        _TXB0EIDH 000F43                          _RXF1SIDH 000F04  
                        _TXB0EIDL 000F44                          _RXF1SIDL 000F05  
                        _TXB1EIDH 000F33                          _RXF2SIDH 000F08  
                        _TXB1EIDL 000F34                          _RXF2SIDL 000F09  
                        _TXB2EIDH 000F23                          _RXF3SIDH 000F0C  
                        _TXB2EIDL 000F24                          _RXF3SIDL 000F0D  
                        _RXF4SIDH 000F10                          _RXF4SIDL 000F11  
                        _RXF5SIDH 000F14                          _RXF5SIDL 000F15  
                        _RXM0EIDH 000F1A                          _RXM0EIDL 000F1B  
                        _TXB0SIDH 000F41                          _RXM1EIDH 000F1E  
                        _TXB0SIDL 000F42                          _RXM1EIDL 000F1F  
                        _TXB1SIDH 000F31                          _TXB1SIDL 000F32  
                        _TXB2SIDH 000F21                          _TXB2SIDL 000F22  
                        _RXM0SIDH 000F18                          _RXM0SIDL 000F19  
                        _RXM1SIDH 000F1C                          _RXM1SIDL 000F1D  
                        _RXERRCNT 000F75                          _TXERRCNT 000F76  
                   ?_CANSetFilter 002C                       _INTCON2bits 000FF1  
                      _CANCONbits 000F6F                        ?_send_data 002C  
                        __Hrparam 0000                      _RXB0SIDLbits 000F62  
                        __Lrparam 0000                      _RXB1SIDLbits 000F52  
                      _CANSetMask 2D04                _currentSpeed_array 0018  
       ??_configurazione_iniziale 0046                      _RXF0SIDLbits 000F01  
                        _delay_ms 2A1C                      _RXF1SIDLbits 000F05  
                  ??_CANSetFilter 0031                      _RXF2SIDLbits 000F09  
                    _RXF3SIDLbits 000F0D                      _RXF4SIDLbits 000F11  
                    _RXF5SIDLbits 000F15          CANsendMessage@dataLength 0032  
                    _remote_frame 0230                     __size_of_main 00E4  
                    _TXB0SIDLbits 000F42                      _TXB1SIDLbits 000F32  
                    _TXB2SIDLbits 000F22         __size_of_CANOperationMode 0012  
                   ?_CANisTxReady 002C                       _RXB0DLCbits 000F65  
                     _RXB1DLCbits 000F55                      _RXM0SIDLbits 000F19  
                     _RXB0CONbits 000F60                       _RXB1CONbits 000F50  
                    _RXM1SIDLbits 000F1D                        _INTCONbits 000FF2  
                ??_CANsendMessage 0034          CANsendMessage@identifier 002C  
                CANSetFilter@tamp 0036                  CANSetFilter@type 0030  
                     _TXB0DLCbits 000F45                       _TXB1DLCbits 000F35  
                     _TXB0CONbits 000F40                       ??_send_data 003C  
                     _TXB2DLCbits 000F25   __end_of_configurazione_iniziale 2A1C  
                     _TXB1CONbits 000F30                       _TXB2CONbits 000F20  
            CANOperationMode@mode 002C                       ?_CANSetMask 002C  
                  ??_CANisTxReady 002C             __end_of_CANInitialize 2D04  
